(dp0
S'Monsieur Hire (1989)'
p1
S'0097904'
p2
sS'Mozart and the Whale (2005)'
p3
S'0392465'
p4
sS'Family, The (2013)'
p5
S'0481499'
p6
sS'They Were Expendable (1945)'
p7
S'0038160'
p8
sS"Being Elmo: A Puppeteer's Journey (2011)"
p9
S'1787660'
p10
sS"Don't Be Afraid of the Dark (2010)"
p11
S'1270761'
p12
sS'Robot & Frank (2012)'
p13
S'1990314'
p14
sS'Butcher, The (Boucher, Le) (1970)'
p15
S'0064106'
p16
sS'For the Bible Tells Me So (2007)'
p17
S'0912583'
p18
sS'Trust (2010)'
p19
S'1529572'
p20
sS'Our Music (Notre musique) (2004)'
p21
S'0360845'
p22
sS'Margin Call (2011)'
p23
S'1615147'
p24
sS'Dear John (2010)'
p25
S'0989757'
p26
sS'X-Men: The Last Stand (2006)'
p27
S'0376994'
p28
sS'Charlie and the Chocolate Factory (2005)'
p29
S'0367594'
p30
sS'Green Lantern (2011)'
p31
S'1133985'
p32
sS'Lockout (2012)'
p33
S'1592525'
p34
sS'Super Size Me (2004)'
p35
S'0390521'
p36
sS'Broken City (2013)'
p37
S'1235522'
p38
sS'Gridiron Gang (2006)'
p39
S'0421206'
p40
sS'San Francisco (1936)'
p41
S'0028216'
p42
sS'Hanna (2011)'
p43
S'0993842'
p44
sS"St. Trinian's (2007)"
p45
S'0964587'
p46
sS'Strange Wilderness (2008)'
p47
S'0489282'
p48
sS'You Again (2010)'
p49
S'1414382'
p50
sS'Escapist, The (2008)'
p51
S'0961728'
p52
sS'Postman Always Rings Twice, The (1946)'
p53
S'0082934'
p54
sS'Green Berets, The (1968)'
p55
S'0063035'
p56
sS'Babylon 5: The River of Souls (1998)'
p57
S'0146247'
p58
sS'Joyeux No\xc3\xabl (Merry Christmas) (2005)'
p59
S'0424205'
p60
sS'Last Samurai, The (2003)'
p61
S'5185908'
p62
sS'Bad Boy Bubby (1993)'
p63
S'0106341'
p64
sS'Side Effects (2013)'
p65
S'2053463'
p66
sS'Unknown (2006)'
p67
S'0450340'
p68
sS'Perfect Holiday, The (2007)'
p69
S'0841032'
p70
sS'Bernie (2011)'
p71
S'1704573'
p72
sS'Connie and Carla (2004)'
p73
S'0345074'
p74
sS'Robot Jox (1990)'
p75
S'0099313'
p76
sS'Stuff, The (1985)'
p77
S'0090094'
p78
sS'Underworld: Rise of the Lycans (2009)'
p79
S'0834001'
p80
sS'Gonzo: The Life and Work of Dr. Hunter S. Thompson (2008)'
p81
S'0479468'
p82
sS'Looking for Eric (2009)'
p83
S'1242545'
p84
sS'Over the Hedge (2006)'
p85
S'0327084'
p86
sS'Ned Kelly (2003)'
p87
S'0277941'
p88
sS'Garden State (2004)'
p89
S'0333766'
p90
sS'2012 (2009)'
p91
S'1190080'
p92
sS'Mean Streets (1973)'
p93
S'0070379'
p94
sS'Front, The (1976)'
p95
S'0074554'
p96
sS"Your Sister's Sister (2011)"
p97
S'1742336'
p98
sS'Educating Rita (1983)'
p99
S'0085478'
p100
sS"Get Rich or Die Tryin' (2005)"
p101
S'0430308'
p102
sS'Arabesque (1966)'
p103
S'0060121'
p104
sS'Contraband (2012)'
p105
S'1524137'
p106
sS'Bling Ring, The (2013)'
p107
S'2132285'
p108
sS'Christmas Tale, A (Un conte de No\xc3\xabl) (2008)'
p109
S'0993789'
p110
sS'Premium Rush (2012)'
p111
S'1547234'
p112
sS'Duplicity (2009)'
p113
S'1135487'
p114
sS'Angel-A (2005)'
p115
S'0473753'
p116
sS'Winter Light (Nattvardsg\xc3\xa4sterna) (1963)'
p117
S'0057358'
p118
sS'My Favorite Wife (1940)'
p119
S'0029284'
p120
sS'Rubber (2010)'
p121
S'1612774'
p122
sS'Double Dragon (1994)'
p123
S'0106761'
p124
sS'Blue Valentine (2010)'
p125
S'1120985'
p126
sS'Christmas with the Kranks (2004)'
p127
S'0388419'
p128
sS'Black Swan (2010)'
p129
S'0947798'
p130
sS'Dominion: Prequel to the Exorcist (2005)'
p131
S'0449086'
p132
sS'Shall We Dance? (2004)'
p133
S'0358135'
p134
sS'Ballad of Cable Hogue, The (1970)'
p135
S'0065446'
p136
sS'Zodiac (2007)'
p137
S'0443706'
p138
sS"Ripley's Game (2002)"
p139
S'0265651'
p140
sS'Lupin III: The Castle Of Cagliostro (Rupan sansei: Kariosutoro no shiro) (1979)'
p141
S'0079833'
p142
sS'Other Boleyn Girl, The (2008)'
p143
S'0467200'
p144
sS'Cats & Dogs: The Revenge of Kitty Galore (2010)'
p145
S'1287468'
p146
sS'Wolf Creek (2005)'
p147
S'0416315'
p148
sS'Bubble (2006)'
p149
S'0476643'
p150
sS'Expendables, The (2010)'
p151
S'2135198'
p152
sS'Look at Me (Comme une image) (2004)'
p153
S'0374583'
p154
sS'Just Go with It (2011)'
p155
S'1564367'
p156
sS'Percy Jackson: Sea of Monsters (2013)'
p157
S'1854564'
p158
sS'Family Stone, The (2005)'
p159
S'0705633'
p160
sS'Wallace & Gromit in The Curse of the Were-Rabbit (2005)'
p161
S'1206584'
p162
sS'Wolfman, The (2010)'
p163
S'0780653'
p164
sS'Across the Universe (2007)'
p165
S'0445922'
p166
sS'Pier, The (La jet\xc3\xa9e) (1962)'
p167
S'0056119'
p168
sS'Big Nothing (2006)'
p169
S'0488085'
p170
sS'Mac and Me (1988)'
p171
S'0095560'
p172
sS'Good Year, A (2006)'
p173
S'0401445'
p174
sS'December Boys (2007)'
p175
S'0465436'
p176
sS'Legion (2010)'
p177
S'1038686'
p178
sS'Sorority Row (2009)'
p179
S'1232783'
p180
sS'Shutter Island (2010)'
p181
S'1130884'
p182
sS'Battleground (1949)'
p183
S'0041163'
p184
sS'Man Who Came to Dinner, The (1942)'
p185
S'0033874'
p186
sS'Departed, The (2006)'
p187
S'0407887'
p188
sS'50/50 (2011)'
p189
S'1306980'
p190
sS'East, The (2013)'
p191
S'2288064'
p192
sS'Red Balloon, The (Ballon rouge, Le) (1956)'
p193
S'0048980'
p194
sS'Riding the Bullet (2004)'
p195
S'0355954'
p196
sS'Girl Next Door, The (1999)'
p197
S'0523311'
p198
sS'Lion King 1\xc2\xbd, The (2004)'
p199
S'0318403'
p200
sS'Snitch (2013)'
p201
S'0882977'
p202
sS'Mother and Child (2009)'
p203
S'1121977'
p204
sS'Great Gatsby, The (2013)'
p205
S'1343092'
p206
sS'Last Airbender, The (2010)'
p207
S'0417299'
p208
sS'Boy A (2007)'
p209
S'1078188'
p210
sS'Letter to Three Wives, A (1949)'
p211
S'0041587'
p212
sS'Justice League: The Flashpoint Paradox (2013)'
p213
S'2820466'
p214
sS'Garfield: A Tail of Two Kitties (2006)'
p215
S'0455499'
p216
sS'Valet, The (La doublure) (2006)'
p217
S'0449851'
p218
sS'Atlas Shrugged: Part 1 (2011)'
p219
S'0480239'
p220
sS'Dark Passage (1947)'
p221
S'0039302'
p222
sS'Switch (1991)'
p223
S'0103016'
p224
sS'Amour (2012)'
p225
S'1602620'
p226
sS'Take Me Home Tonight (2011)'
p227
S'0810922'
p228
sS'24: Redemption (2008)'
p229
S'1546038'
p230
sS'Criss Cross (1949)'
p231
S'0041268'
p232
sS'Camera Buff (Amator) (1979)'
p233
S'0078763'
p234
sS'Dolls (2002)'
p235
S'0330229'
p236
sS'Ask the Dust (2006)'
p237
S'0384814'
p238
sS'Scarecrow (1973)'
p239
S'0070643'
p240
sS'Wackiest Ship in the Army, The (1960)'
p241
S'0054453'
p242
sS'Tell No One (Ne le dis \xc3\xa0 personne) (2006)'
p243
S'0362225'
p244
sS'King Kong (2005)'
p245
S'0360717'
p246
sS'Langoliers, The (1995)'
p247
S'0112040'
p248
sS'Head in the Clouds (2004)'
p249
S'0338097'
p250
sS"Inside (\xc3\x80 l'int\xc3\xa9rieur) (2007)"
p251
S'0856288'
p252
sS'Awakening, The (2011)'
p253
S'6294892'
p254
sS'Sunshine Cleaning (2008)'
p255
S'0862846'
p256
sS'Two Brothers (Deux fr\xc3\xa8res) (2004)'
p257
S'0338512'
p258
sS'Pursuit of Happiness (2001)'
p259
S'0243508'
p260
sS'He Said, She Said (1991)'
p261
S'0102011'
p262
sS'Semi-Pro (2008)'
p263
S'0839980'
p264
sS'Topo, El (1970)'
p265
S'0067866'
p266
sS'Delta Force 2 (Delta Force 2: The Colombian Connection) (1990)'
p267
S'0099399'
p268
sS'Restrepo (2010)'
p269
S'1559549'
p270
sS'Sicko (2007)'
p271
S'0386032'
p272
sS'Girl Next Door, The (2007)'
p273
S'0523311'
p274
sS'Underworld: Evolution (2006)'
p275
S'0401855'
p276
sS'Havre, Le (2011)'
p277
S'1508675'
p278
sS'Day & Night (2010)'
p279
S'1620446'
p280
sS'Forgetting Sarah Marshall (2008)'
p281
S'0800039'
p282
sS'Savage Grace (2007)'
p283
S'0379976'
p284
sS'Moonrise Kingdom (2012)'
p285
S'1748122'
p286
sS'Body of Lies (2008)'
p287
S'0758774'
p288
sS'Heartbeats (Les amours imaginaires) (2010)'
p289
S'1600524'
p290
sS'Camille (1936)'
p291
S'0028683'
p292
sS"My Sister's Keeper (2009)"
p293
S'1078588'
p294
sS'Dead End (1937)'
p295
S'0028773'
p296
sS"It's a Very Merry Muppet Christmas Movie (2002)"
p297
S'0329737'
p298
sS'New Police Story (Xin jing cha gu shi) (2004)'
p299
S'0386005'
p300
sS'John Carter (2012)'
p301
S'0401729'
p302
sS'Year of the Dog (2007)'
p303
S'0756729'
p304
sS"Dead Man's Shoes (2004)"
p305
S'0419677'
p306
sS'Hot Fuzz (2007)'
p307
S'0425112'
p308
sS'Corpse Bride (2005)'
p309
S'0121164'
p310
sS'Matti: Hell Is for Heroes (Matti) (2006)'
p311
S'0390245'
p312
sS'Headhunters (Hodejegerne) (2011)'
p313
S'1614989'
p314
sS'Sidekicks (1992)'
p315
S'0105402'
p316
sS'Monster House (2006)'
p317
S'0385880'
p318
sS'RV (2006)'
p319
S'0449089'
p320
sS"Other People's Money (1991)"
p321
S'0102609'
p322
sS'Day of the Locust, The (1975)'
p323
S'0072848'
p324
sS'Virgin Spring, The (Jungfruk\xc3\xa4llan) (1960)'
p325
S'0053976'
p326
sS'Summer Place, A (1959)'
p327
S'0053320'
p328
sS'Constant Gardener, The (2005)'
p329
S'0387131'
p330
sS'Punisher, The (2004)'
p331
S'0330793'
p332
sS'Oslo, August 31st (Oslo, 31. august) (2011)'
p333
S'1736633'
p334
sS'Legend of Sleepy Hollow, The (1980)'
p335
S'0051850'
p336
sS'Invention of Lying, The (2009)'
p337
S'1058017'
p338
sS'Gamer (2009)'
p339
S'1034032'
p340
sS"It's the Great Pumpkin, Charlie Brown (1966)"
p341
S'0060550'
p342
sS'Buck (2011)'
p343
S'1753549'
p344
sS'American Reunion (American Pie 4) (2012)'
p345
S'1605630'
p346
sS'Richard Pryor: Live in Concert (1979)'
p347
S'0079807'
p348
sS'Lincoln Lawyer, The (2011)'
p349
S'1189340'
p350
sS'Hiroshima Mon Amour (1959)'
p351
S'1567744'
p352
sS'All-Star Superman (2011)'
p353
S'1699114'
p354
sS'Heiress, The (1949)'
p355
S'0041452'
p356
sS'Monster (2003)'
p357
S'0340855'
p358
sS'88 Minutes (2008)'
p359
S'3011018'
p360
sS'Mon Oncle (My Uncle) (1958)'
p361
S'0050706'
p362
sS'Madagascar (2005)'
p363
S'0351283'
p364
sS'Vacancy (2007)'
p365
S'0452702'
p366
sS"Knockin' on Heaven's Door (1997)"
p367
S'0119472'
p368
sS'Miss March (2009)'
p369
S'1151922'
p370
sS"It's All Gone Pete Tong (2004)"
p371
S'0388139'
p372
sS'Persona (1966)'
p373
S'0060827'
p374
sS'Ricky Gervais Live 2: Politics (2004)'
p375
S'0439784'
p376
sS'Day of Wrath (Vredens dag) (1943)'
p377
S'0036506'
p378
sS'Andalusian Dog, An (Un chien andalou) (1929)'
p379
S'0020530'
p380
sS'Ultraviolet (2006)'
p381
S'0370032'
p382
sS'Madagascar: Escape 2 Africa (2008)'
p383
S'0479952'
p384
sS'Torremolinos 73 (2003)'
p385
S'0339806'
p386
sS'Imposter, The (2012)'
p387
S'6167214'
p388
sS'Open Season (2006)'
p389
S'0400717'
p390
sS'Gimme Shelter (1970)'
p391
S'0065780'
p392
sS'Jane Eyre (2011)'
p393
S'1229822'
p394
sS'Lady Vengeance (Sympathy for Lady Vengeance) (Chinjeolhan geumjassi) (2005)'
p395
S'0451094'
p396
sS'Pride and Prejudice (1940)'
p397
S'0032943'
p398
sS'Chitty Chitty Bang Bang (1968)'
p399
S'0062803'
p400
sS'Back-up Plan, The (2010)'
p401
S'2230465'
p402
sS'Get Him to the Greek (2010)'
p403
S'1226229'
p404
sS'Zelig (1983)'
p405
S'0086637'
p406
sS"Decline of the American Empire, The (D\xc3\xa9clin de l'empire am\xc3\xa9ricain, Le) (1986)"
p407
S'0090985'
p408
sS'Comebacks, The (2007)'
p409
S'0790804'
p410
sS'Exorcist: The Beginning (2004)'
p411
S'0204313'
p412
sS'Town Called Panic, A (Panique au village) (2009)'
p413
S'1433540'
p414
sS'Farscape: The Peacekeeper Wars (2004)'
p415
S'0387736'
p416
sS'Kummeli Goldrush (Kummeli kultakuume) (1997)'
p417
S'0133906'
p418
sS"It's Complicated (2009)"
p419
S'1230414'
p420
sS'Mildred Pierce (2011)'
p421
S'1492030'
p422
sS'13 (2010)'
p423
S'0798817'
p424
sS'Sky High (2005)'
p425
S'0405325'
p426
sS'Honeymooners, The (2005)'
p427
S'0614082'
p428
sS'Unaccompanied Minors (2006)'
p429
S'0488658'
p430
sS'Mama (2013)'
p431
S'2023587'
p432
sS'Very Long Engagement, A (Un long dimanche de fian\xc3\xa7ailles) (2004)'
p433
S'0344510'
p434
sS'Robin Hood (2010)'
p435
S'0955308'
p436
sS'Anonymous (2011)'
p437
S'1521197'
p438
sS'Twilight Saga: Breaking Dawn - Part 1, The (2011)'
p439
S'1673434'
p440
sS'Kwaidan (Kaidan) (1964)'
p441
S'0058279'
p442
sS'Hallam Foe (Mister Foe) (2007)'
p443
S'0466816'
p444
sS'Rudolph, the Red-Nosed Reindeer (1964)'
p445
S'0058536'
p446
sS'Frogs (1972)'
p447
S'0068615'
p448
sS'Sammy and Rosie Get Laid (1987)'
p449
S'0093913'
p450
sS'Whole Ten Yards, The (2004)'
p451
S'0327247'
p452
sS'TPB AFK: The Pirate Bay Away from Keyboard (2013)'
p453
S'2608732'
p454
sS"Tyler Perry's Why Did I Get Married? (2007)"
p455
S'0906108'
p456
sS'Grace Is Gone (2007)'
p457
S'0772168'
p458
sS'Merry Madagascar (2009)'
p459
S'1526300'
p460
sS'Hebrew Hammer, The (2003)'
p461
S'0317640'
p462
sS'ParaNorman (2012)'
p463
S'1623288'
p464
sS'Baxter, The (2005)'
p465
S'0401244'
p466
sS'Knocked Up (2007)'
p467
S'0478311'
p468
sS'Damsels in Distress (2011)'
p469
S'1667307'
p470
sS'My Kid Could Paint That (2007)'
p471
S'0912592'
p472
sS'Happythankyoumoreplease (2010)'
p473
S'1481572'
p474
sS'Taxi to the Dark Side (2007)'
p475
S'0854678'
p476
sS'Invisible, The (2007)'
p477
S'5594080'
p478
sS'Life Aquatic with Steve Zissou, The (2004)'
p479
S'0362270'
p480
sS'Rush (2013)'
p481
S'1979320'
p482
sS"Farmer's Daughter, The (1947)"
p483
S'1809366'
p484
sS'Django Unchained (2012)'
p485
S'1853728'
p486
sS'Outlander (2008)'
p487
S'0462465'
p488
sS"Bang, Bang, You're Dead (2002)"
p489
S'0288439'
p490
sS'Our Hospitality (1923)'
p491
S'0014341'
p492
sS'Keeping Mum (2005)'
p493
S'0444653'
p494
sS'Diggstown (1992)'
p495
S'0104107'
p496
sS'Batman (1966)'
p497
S'0059968'
p498
sS'Class, The (Entre les murs) (2008)'
p499
S'1068646'
p500
sS'Purple Rain (1984)'
p501
S'0087957'
p502
sS'After.Life (2009)'
p503
S'0838247'
p504
sS'Ladder 49 (2004)'
p505
S'0349710'
p506
sS'Assault on Precinct 13 (2005)'
p507
S'0398712'
p508
sS'Upside of Anger, The (2005)'
p509
S'0365885'
p510
sS'Wanderlust (2012)'
p511
S'1655460'
p512
sS'Duck Season (Temporada de patos) (2004)'
p513
S'0407246'
p514
sS'Sleepwalk with Me (2012)'
p515
S'2077851'
p516
sS'Straw Dogs (2011)'
p517
S'0999913'
p518
sS'Michael Clayton (2007)'
p519
S'0465538'
p520
sS'War (2007)'
p521
S'0499556'
p522
sS'DOA: Dead or Alive (2006)'
p523
S'0398913'
p524
sS'Chronicle (2012)'
p525
S'1706593'
p526
sS'In a Better World (H\xc3\xa6vnen) (2010)'
p527
S'1340107'
p528
sS'How to Lose Friends & Alienate People (2008)'
p529
S'0455538'
p530
sS'Viridiana (1961)'
p531
S'0055601'
p532
sS'Watchmen (2009)'
p533
S'0409459'
p534
sS'Hope Springs (2012)'
p535
S'1535438'
p536
sS'Paper Man (2009)'
p537
S'0437405'
p538
sS'How I Got Into College (1989)'
p539
S'0097530'
p540
sS'Miss Pettigrew Lives for a Day (2008)'
p541
S'0970468'
p542
sS'Cheaper by the Dozen (1950)'
p543
S'0042327'
p544
sS'Yours, Mine and Ours (2005)'
p545
S'0063829'
p546
sS'Best Worst Movie (2009)'
p547
S'1144539'
p548
sS'Cameraman, The (1928)'
p549
S'1626811'
p550
sS'In Search of a Midnight Kiss (2007)'
p551
S'0989000'
p552
sS'Abandoned, The (2006)'
p553
S'0475937'
p554
sS'American Teen (2008)'
p555
S'0486259'
p556
sS'Shaun of the Dead (2004)'
p557
S'0365748'
p558
sS'Jersey Girl (2004)'
p559
S'0300051'
p560
sS'Taking Chance (2009)'
p561
S'1019454'
p562
sS'Conspirator, The (2010)'
p563
S'0968264'
p564
sS'3 Extremes (Three... Extremes) (Saam gaang yi) (2004)'
p565
S'0420251'
p566
sS'Element of Crime, The (Forbrydelsens Element) (1984)'
p567
S'0087280'
p568
sS'Megamind (2010)'
p569
S'1001526'
p570
sS'Albert Nobbs (2011)'
p571
S'1602098'
p572
sS'Five Minutes of Heaven (2009)'
p573
S'1238291'
p574
sS'Captains Courageous (1937)'
p575
S'0028691'
p576
sS'Ultimate Gift, The (2006)'
p577
S'0482629'
p578
sS'Rutles: All You Need Is Cash, The (1978)'
p579
S'0077147'
p580
sS'Match Factory Girl, The (Tulitikkutehtaan tytt\xc3\xb6) (1990)'
p581
S'0098532'
p582
sS'Inheritance, The (Arven) (2003)'
p583
S'0328844'
p584
sS'Never Back Down (2008)'
p585
S'1023111'
p586
sS'Desperate Hours, The (1955)'
p587
S'5998656'
p588
sS'Street Fighter, The (Gekitotsu! Satsujin ken) (1974)'
p589
S'0073756'
p590
sS'Robot Stories (2003)'
p591
S'0301777'
p592
sS'Swimming to Cambodia (1987)'
p593
S'0094089'
p594
sS'Death of Mr. Lazarescu, The (Moartea domnului Lazarescu) (2005)'
p595
S'0456149'
p596
sS'Road to Guantanamo, The (2006)'
p597
S'0468094'
p598
sS'Control (2007)'
p599
S'0421082'
p600
sS'Alan Partridge: Alpha Papa (2013)'
p601
S'3152068'
p602
sS'Drums Along the Mohawk (1939)'
p603
S'0031252'
p604
sS'Valkyrie (2008)'
p605
S'0985699'
p606
sS"Metal: A Headbanger's Journey (2005)"
p607
S'0478209'
p608
sS'Fido (2007)'
p609
S'1034383'
p610
sS'Wave, The (Welle, Die) (2008)'
p611
S'1063669'
p612
sS'Talladega Nights: The Ballad of Ricky Bobby (2006)'
p613
S'0415306'
p614
sS'Saw II (2005)'
p615
S'0432348'
p616
sS'Severance (2006)'
p617
S'0464196'
p618
sS'Yes (2004)'
p619
S'0381717'
p620
sS"It's Alive (1974)"
p621
S'0071675'
p622
sS'Last Horror Movie, The (2003)'
p623
S'0319728'
p624
sS'Perfect Man, The (2005)'
p625
S'0380623'
p626
sS'Ashes and Diamonds (Popi\xc3\xb3l i diament) (1958)'
p627
S'0052080'
p628
sS'Only Yesterday (Omohide poro poro) (1991)'
p629
S'0102587'
p630
sS'American Hustle (2013)'
p631
S'1800241'
p632
sS'Batman: The Dark Knight Returns, Part 2 (2013)'
p633
S'2166834'
p634
sS'Out-of-Towners, The (1970)'
p635
S'0701636'
p636
sS'Hitchcock (2012)'
p637
S'0975645'
p638
sS'Hyde Park on Hudson (2012)'
p639
S'1477855'
p640
sS'Moulin Rouge (1952)'
p641
S'0044926'
p642
sS'Cellular (2004)'
p643
S'0337921'
p644
sS'Lincoln (2012)'
p645
S'0443272'
p646
sS'Bridge to Terabithia (2007)'
p647
S'0398808'
p648
sS'Black Dahlia, The (2006)'
p649
S'0387877'
p650
sS'X-Files: I Want to Believe, The (2008)'
p651
S'0443701'
p652
sS'Ladybugs (1992)'
p653
S'0104670'
p654
sS'When in Rome (2010)'
p655
S'1185416'
p656
sS'Other Guys, The (2010)'
p657
S'1386588'
p658
sS'Heights (2004)'
p659
S'3087668'
p660
sS"Intolerance: Love's Struggle Throughout the Ages (1916)"
p661
S'0006864'
p662
sS'Around the Bend (2004)'
p663
S'0384810'
p664
sS'Defiance (2008)'
p665
S'1034303'
p666
sS'My Best Friend (Mon meilleur ami) (2006)'
p667
S'0778784'
p668
sS"Teacher's Pet (1958)"
p669
S'0052278'
p670
sS'Oceans (Oc\xc3\xa9ans) (2009)'
p671
S'3158382'
p672
sS'Despicable Me 2 (2013)'
p673
S'1690953'
p674
sS'Dirty Deeds (2005)'
p675
S'0407732'
p676
sS'Master, The (2012)'
p677
S'1560747'
p678
sS'Twisted (2004)'
p679
S'0315297'
p680
sS'Igor (2008)'
p681
S'0465502'
p682
sS'Dark Shadows (2012)'
p683
S'1077368'
p684
sS'Black Beauty (1971)'
p685
S'0066834'
p686
sS'Enemy Below, The (1957)'
p687
S'0050356'
p688
sS'Intouchables (2011)'
p689
S'1675434'
p690
sS'Adventures of Sharkboy and Lavagirl 3-D, The (2005)'
p691
S'0424774'
p692
sS'Veronika Decides to Die (2009)'
p693
S'1068678'
p694
sS'C.S.A.: The Confederate States of America (2004)'
p695
S'0389828'
p696
sS'Poseidon (2006)'
p697
S'0409182'
p698
sS'Tinker, Tailor, Soldier, Spy (1979)'
p699
S'1340800'
p700
sS'O Lucky Man! (1973)'
p701
S'0070464'
p702
sS'College Road Trip (2008)'
p703
S'0997047'
p704
sS'Hello Again (1987)'
p705
S'0093175'
p706
sS'State of Grace (1990)'
p707
S'0100685'
p708
sS'Sweet Liberty (1986)'
p709
S'0092035'
p710
sS'Spy Who Came in from the Cold, The (1965)'
p711
S'0059749'
p712
sS'Step Up 3D (2010)'
p713
S'1193631'
p714
sS'McLintock! (1963)'
p715
S'0057298'
p716
sS"What To Expect When You're Expecting (2012)"
p717
S'1586265'
p718
sS'Tropic Thunder (2008)'
p719
S'0942385'
p720
sS'Something the Lord Made (2004)'
p721
S'0386792'
p722
sS'Night of the Living Dead (1990)'
p723
S'0100258'
p724
sS'Fountainhead, The (1949)'
p725
S'0041386'
p726
sS"Salem's Lot (1979)"
p727
S'0079844'
p728
sS"Mr. Popper's Penguins (2011)"
p729
S'1396218'
p730
sS'Lord of the Rings: The Return of the King, The (2003)'
p731
S'0167260'
p732
sS'Conspiracy (2001)'
p733
S'0266425'
p734
sS'Skyline (2010)'
p735
S'1564585'
p736
sS'Racing with the Moon (1984)'
p737
S'0087968'
p738
sS'Ballad of Jack and Rose, The (2005)'
p739
S'0357110'
p740
sS'Sydney White (2007)'
p741
S'0815244'
p742
sS'Away from Her (2006)'
p743
S'0491747'
p744
sS'Layer Cake (2004)'
p745
S'0375912'
p746
sS'Pick-up Artist, The (1987)'
p747
S'2485436'
p748
sS'Lola Mont\xc3\xa8s (1955)'
p749
S'0048308'
p750
sS'Johnny Guitar (1954)'
p751
S'0047136'
p752
sS'Pauly Shore Is Dead (2003)'
p753
S'0284674'
p754
sS'Friday Night Lights (2004)'
p755
S'0390022'
p756
sS'Closer (2004)'
p757
S'0376541'
p758
sS'Doom (2005)'
p759
S'0419706'
p760
sS'Bandslam (2009)'
p761
S'0976222'
p762
sS'Ai Weiwei: Never Sorry (2012)'
p763
S'1845773'
p764
sS'Hidden Fortress, The (Kakushi-toride no san-akunin) (1958)'
p765
S'0051808'
p766
sS'Torque (2004)'
p767
S'0329691'
p768
sS'Syriana (2005)'
p769
S'0365737'
p770
sS'Deep Blue (2003)'
p771
S'0365109'
p772
sS'Grey Gardens (1975)'
p773
S'0073076'
p774
sS'Women, The (2008)'
p775
S'4760310'
p776
sS'Notorious Bettie Page, The (2005)'
p777
S'0404802'
p778
sS'Last Legion, The (2007)'
p779
S'0462396'
p780
sS'Priceless (Hors de prix) (2006)'
p781
S'0482088'
p782
sS'Match Point (2005)'
p783
S'0416320'
p784
sS'Just One of the Guys (1985)'
p785
S'0089393'
p786
sS'Paprika (Papurika) (2006)'
p787
S'0851578'
p788
sS'Girl Next Door, The (2004)'
p789
S'0265208'
p790
sS'I Walked with a Zombie (1943)'
p791
S'0036027'
p792
sS'Paranormal Activity 3 (2011)'
p793
S'1778304'
p794
sS'True Stories (1986)'
p795
S'0092117'
p796
sS'Way Out West (1937)'
p797
S'0029747'
p798
sS"Miracle of Morgan's Creek, The (1944)"
p799
S'0037077'
p800
sS'Man of the Year (2006)'
p801
S'0483726'
p802
sS'Freaks (1932)'
p803
S'0022913'
p804
sS'Peanut Butter Solution, The (1985)'
p805
S'0089789'
p806
sS'U.S. vs. John Lennon, The (2006)'
p807
S'0478049'
p808
sS'Plaza Suite (1971)'
p809
S'0067589'
p810
sS'Avengers, The (2012)'
p811
S'0848228'
p812
sS'30 Minutes or Less (2011)'
p813
S'1622547'
p814
sS'Machuca (2004)'
p815
S'0378284'
p816
sS'Arn: The Knight Templar (Arn - Tempelriddaren) (2007)'
p817
S'0837106'
p818
sS'No (2012)'
p819
S'2059255'
p820
sS'Under The Volcano (1984)'
p821
S'0088322'
p822
sS'Khartoum (1966)'
p823
S'0060588'
p824
sS'Moneyball (2011)'
p825
S'1210166'
p826
sS'Eternal Sunshine of the Spotless Mind (2004)'
p827
S'0338013'
p828
sS'Batman/Superman Movie, The (1998)'
p829
S'5607974'
p830
sS'Celeste and Jesse Forever (Celeste & Jesse Forever) (2012)'
p831
S'1405365'
p832
sS'Don Jon (2013)'
p833
S'2229499'
p834
sS'Beginners (2010)'
p835
S'1532503'
p836
sS'Word Wars (2004)'
p837
S'0390632'
p838
sS'Quiet, The (2005)'
p839
S'0414951'
p840
sS'Kabluey (2007)'
p841
S'0816545'
p842
sS'Goon (2012)'
p843
S'2327867'
p844
sS'Along Came Polly (2004)'
p845
S'0343135'
p846
sS'Team America: World Police (2004)'
p847
S'0372588'
p848
sS'Stendhal Syndrome, The (Sindrome di Stendhal, La) (1996)'
p849
S'0117658'
p850
sS'Crowd, The (1928)'
p851
S'0018806'
p852
sS'Wedding Crashers (2005)'
p853
S'0396269'
p854
sS'Astronaut Farmer, The (2007)'
p855
S'2135136'
p856
sS'Haywire (2011)'
p857
S'1506999'
p858
sS'3:10 to Yuma (2007)'
p859
S'0381849'
p860
sS'Red Riding: 1983 (2009)'
p861
S'1259573'
p862
sS'Expendables 2, The (2012)'
p863
S'1764651'
p864
sS'Steamboy (Such\xc3\xaemub\xc3\xb4i) (2004)'
p865
S'0348121'
p866
sS'Tarnation (2003)'
p867
S'0390538'
p868
sS'Salt (2010)'
p869
S'0944835'
p870
sS'Cube 2: Hypercube (2002)'
p871
S'0285492'
p872
sS'Dolls (1987)'
p873
S'0092906'
p874
sS'Interview (2007)'
p875
S'0480269'
p876
sS'Carandiru (2003)'
p877
S'0293007'
p878
sS'Duma (2005)'
p879
S'0361715'
p880
sS'Secretariat (2010)'
p881
S'1028576'
p882
sS'Taken (2008)'
p883
S'0936501'
p884
sS'No Strings Attached (2011)'
p885
S'1411238'
p886
sS'Prince and the Showgirl, The (1957)'
p887
S'0050861'
p888
sS'Blue Thunder (1983)'
p889
S'0085255'
p890
sS'Deadfall (2012)'
p891
S'1667310'
p892
sS'Nightbreed (1990)'
p893
S'0100260'
p894
sS'Winter War (Talvisota) (1989)'
p895
S'0098437'
p896
sS'Stealth (2005)'
p897
S'0382992'
p898
sS'Muppets, The (2011)'
p899
S'1204342'
p900
sS'Young Victoria, The (2009)'
p901
S'0962736'
p902
sS'Ice Age: Dawn of the Dinosaurs (2009)'
p903
S'1080016'
p904
sS'Goods: Live Hard, Sell Hard, The (2009)'
p905
S'1092633'
p906
sS'Into the Abyss (2011)'
p907
S'1972663'
p908
sS'Little Black Book (2004)'
p909
S'0361841'
p910
sS'Home (2009)'
p911
S'1014762'
p912
sS'Anvil! The Story of Anvil (2008)'
p913
S'1157605'
p914
sS'Peter Pan (2003)'
p915
S'0316396'
p916
sS'Tetro (2009)'
p917
S'0964185'
p918
sS'Blood: The Last Vampire (2009)'
p919
S'0806027'
p920
sS'Casshern (2004)'
p921
S'0405821'
p922
sS'Browning Version, The (1951)'
p923
S'0043362'
p924
sS'Leopard, The (Gattopardo, Il) (1963)'
p925
S'0057091'
p926
sS'Red State (2011)'
p927
S'0873886'
p928
sS'Deception (2008)'
p929
S'0800240'
p930
sS'Unthinkable (2010)'
p931
S'0914863'
p932
sS'Warm Bodies (2013)'
p933
S'1588173'
p934
sS'Bill Cosby, Himself (1983)'
p935
S'0083652'
p936
sS'Night of the Generals, The (1967)'
p937
S'0062038'
p938
sS'Standard Operating Procedure (2008)'
p939
S'0896866'
p940
sS'Day of the Jackal, The (1973)'
p941
S'0785259'
p942
sS'Sahara (2005)'
p943
S'0318649'
p944
sS'Iron Man (2008)'
p945
S'0371746'
p946
sS"Brooklyn's Finest (2010)"
p947
S'3022130'
p948
sS'When the Levees Broke: A Requiem in Four Acts (2006)'
p949
S'0783612'
p950
sS'League of Ordinary Gentlemen, A (2004)'
p951
S'0430289'
p952
sS'Factotum (2005)'
p953
S'0417658'
p954
sS'Georgy Girl (1966)'
p955
S'0060453'
p956
sS'Good Woman, A (2004)'
p957
S'0379306'
p958
sS'Prince & Me, The (2004)'
p959
S'0337697'
p960
sS'House Bunny, The (2008)'
p961
S'0852713'
p962
sS'Meet the Robinsons (2007)'
p963
S'0396555'
p964
sS'Ball of Fire (1941)'
p965
S'0033373'
p966
sS'Little Manhattan (2005)'
p967
S'0412922'
p968
sS'We Need to Talk About Kevin (2011)'
p969
S'1242460'
p970
sS'Spring, Summer, Fall, Winter... and Spring (Bom yeoreum gaeul gyeoul geurigo bom) (2003)'
p971
S'0374546'
p972
sS'Never Say Never Again (1983)'
p973
S'0086006'
p974
sS'Other, The (1972)'
p975
S'0069050'
p976
sS'Prometheus (2012)'
p977
S'1446714'
p978
sS'Highway 61 (1991)'
p979
S'0102035'
p980
sS'Wild Geese, The (1978)'
p981
S'0078492'
p982
sS'Machine Girl, The (Kataude mashin g\xc3\xa2ru) (2008)'
p983
S'1050160'
p984
sS'Family Guy Presents Stewie Griffin: The Untold Story (2005)'
p985
S'0385690'
p986
sS"She's the Man (2006)"
p987
S'0454945'
p988
sS'C.R.A.Z.Y. (2005)'
p989
S'0401085'
p990
sS'Margot at the Wedding (2007)'
p991
S'0757361'
p992
sS'Tokyo Sonata (2008)'
p993
S'0938341'
p994
sS'Mouchette (1967)'
p995
S'0061996'
p996
sS'Season of the Witch (2011)'
p997
S'0479997'
p998
sS'Morning Glory (2010)'
p999
S'1126618'
p1000
sS"Blue Is the Warmest Color (La vie d'Ad\xc3\xa8le) (2013)"
p1001
S'3682020'
p1002
sS'Life as We Know It (2010)'
p1003
S'1055292'
p1004
sS'Nanny Diaries, The (2007)'
p1005
S'0489237'
p1006
sS'Tree of Life, The (2011)'
p1007
S'0478304'
p1008
sS'White Chicks (2004)'
p1009
S'0381707'
p1010
sS'Around the World in 80 Days (2004)'
p1011
S'0327437'
p1012
sS'Sisterhood of the Traveling Pants, The (2005)'
p1013
S'0403508'
p1014
sS'New Adventures of Pippi Longstocking, The (1988)'
p1015
S'0093744'
p1016
sS'Stay Alive (2006)'
p1017
S'0441796'
p1018
sS'Sunday Bloody Sunday (1971)'
p1019
S'0067805'
p1020
sS'Snake Pit, The (1948)'
p1021
S'0040806'
p1022
sS'Recount (2008)'
p1023
S'1000771'
p1024
sS'Woman Is a Woman, A (femme est une femme, Une) (1961)'
p1025
S'0055572'
p1026
sS'Confessions (Kokuhaku) (2010)'
p1027
S'1590089'
p1028
sS'Conjuring, The (2013)'
p1029
S'0384008'
p1030
sS'Perfect Host, The (2010)'
p1031
S'1334553'
p1032
sS'Hindenburg, The (1975)'
p1033
S'1642620'
p1034
sS'Scary Movie 4 (2006)'
p1035
S'0362120'
p1036
sS'Bridge Too Far, A (1977)'
p1037
S'0075784'
p1038
sS'Wordplay (2006)'
p1039
S'0492506'
p1040
sS'Masterminds (1997)'
p1041
S'0119630'
p1042
sS'Host, The (2013)'
p1043
S'1517260'
p1044
sS'Rise of the Planet of the Apes (2011)'
p1045
S'1318514'
p1046
sS'Idlewild (2006)'
p1047
S'0417225'
p1048
sS'Race to Witch Mountain (2009)'
p1049
S'1075417'
p1050
sS'Black Narcissus (1947)'
p1051
S'0039192'
p1052
sS"She's Out of My League (2010)"
p1053
S'0815236'
p1054
sS'Basic Instinct 2 (2006)'
p1055
S'0430912'
p1056
sS'Outsourced (2006)'
p1057
S'0425326'
p1058
sS'Northwest Passage (1940)'
p1059
S'0032851'
p1060
sS'El Cid (1961)'
p1061
S'0054847'
p1062
sS'Chase, The (1966)'
p1063
S'0060232'
p1064
sS'Letters from Iwo Jima (2006)'
p1065
S'0498380'
p1066
sS'10 Rillington Place (1971)'
p1067
S'0066730'
p1068
sS'Bells Are Ringing (1960)'
p1069
S'0053645'
p1070
sS'Dr. Giggles (1992)'
p1071
S'0104139'
p1072
sS'Red Riding Hood (2011)'
p1073
S'1486185'
p1074
sS"Ender's Game (2013)"
p1075
S'1731141'
p1076
sS'Glory Road (2006)'
p1077
S'0385726'
p1078
sS'Lawless (2012)'
p1079
S'1212450'
p1080
sS'Puss in Boots (2011)'
p1081
S'0448694'
p1082
sS'Kingdom of Heaven (2005)'
p1083
S'0320661'
p1084
sS'Win Win (2011)'
p1085
S'1606392'
p1086
sS'Dagon (2001)'
p1087
S'0264508'
p1088
sS'Capote (2005)'
p1089
S'0379725'
p1090
sS'Havoc (2005)'
p1091
S'0285175'
p1092
sS'Contract, The (2006)'
p1093
S'0445946'
p1094
sS'Spring Breakers (2013)'
p1095
S'3317714'
p1096
sS'Che: Part One (2008)'
p1097
S'0892255'
p1098
sS'Ugetsu (Ugetsu monogatari) (1953)'
p1099
S'0046478'
p1100
sS'Murder on the Orient Express (1974)'
p1101
S'0071877'
p1102
sS'Whiteout (2009)'
p1103
S'0365929'
p1104
sS'Killer Joe (2011)'
p1105
S'1726669'
p1106
sS'Angels & Demons (2009)'
p1107
S'0808151'
p1108
sS'Men Who Stare at Goats, The (2009)'
p1109
S'1234548'
p1110
sS'Mechanic, The (2011)'
p1111
S'0472399'
p1112
sS'Angels in America (2003)'
p1113
S'0318997'
p1114
sS'Suspect Zero (2004)'
p1115
S'0324127'
p1116
sS'Blue Jasmine (2013)'
p1117
S'2334873'
p1118
sS'Deck the Halls (2006)'
p1119
S'0790604'
p1120
sS'Sonatine (Sonachine) (1993)'
p1121
S'0108188'
p1122
sS'Bronson (2009)'
p1123
S'1900862'
p1124
sS'Doomsday (2008)'
p1125
S'0483607'
p1126
sS'Heat, The (2013)'
p1127
S'2819404'
p1128
sS'Matinee (1993)'
p1129
S'0107529'
p1130
sS'Terri (2011)'
p1131
S'1687281'
p1132
sS'Day After Tomorrow, The (2004)'
p1133
S'0319262'
p1134
sS'Cove, The (2009)'
p1135
S'3815612'
p1136
sS'Seeking Justice (2011)'
p1137
S'1214962'
p1138
sS'War of the Buttons (1994)'
p1139
S'0111666'
p1140
sS'Riddick (2013)'
p1141
S'1411250'
p1142
sS'Shrink (2009)'
p1143
S'1247692'
p1144
sS'American Gangster (2007)'
p1145
S'0765429'
p1146
sS'I Am Number Four (2011)'
p1147
S'1464540'
p1148
sS'Perfect Stranger (2007)'
p1149
S'0457433'
p1150
sS'Safe (2012)'
p1151
S'1656190'
p1152
sS'Anne of Green Gables: The Sequel (1987)'
p1153
S'0092571'
p1154
sS'Hunter, The (2011)'
p1155
S'2098220'
p1156
sS'Dot the I (2003)'
p1157
S'0326835'
p1158
sS'Captain Blood (1935)'
p1159
S'0026174'
p1160
sS'First Snow (2006)'
p1161
S'0432289'
p1162
sS'Winnie the Pooh (2011)'
p1163
S'1449283'
p1164
sS'Flesh & Blood (1985)'
p1165
S'0089153'
p1166
sS'Mist, The (2007)'
p1167
S'0884328'
p1168
sS'High School Musical 2 (2007)'
p1169
S'0810900'
p1170
sS'Hunt, The (Jagten) (2012)'
p1171
S'2106476'
p1172
sS'Breach (2007)'
p1173
S'0401997'
p1174
sS'Peacock (2010)'
p1175
S'1188113'
p1176
sS'Sunset Limited, The (2011)'
p1177
S'1510938'
p1178
sS'Kikujiro (Kikujir\xc3\xb4 no natsu) (1999)'
p1179
S'0199683'
p1180
sS'Immortel (ad vitam) (2004)'
p1181
S'0314063'
p1182
sS'Holiday (1938)'
p1183
S'0030241'
p1184
sS'Desperate Hours (1990)'
p1185
S'0099409'
p1186
sS'Three Musketeers, The (1948)'
p1187
S'0232399'
p1188
sS'Pursuit of Happyness, The (2006)'
p1189
S'0454921'
p1190
sS'Silver Streak (1976)'
p1191
S'0075223'
p1192
sS'Canterville Ghost, The (1944)'
p1193
S'0036696'
p1194
sS'Sword of Doom, The (Dai-bosatsu t\xc3\xb4ge) (1966)'
p1195
S'0060277'
p1196
sS'Inside Man (2006)'
p1197
S'0454848'
p1198
sS'Hunger Games, The (2012)'
p1199
S'5198846'
p1200
sS'Batman: Gotham Knight (2008)'
p1201
S'1117563'
p1202
sS'Barbarians at the Gate (1993)'
p1203
S'0106356'
p1204
sS'Battleship (2012)'
p1205
S'1440129'
p1206
sS'Ted (2012)'
p1207
S'1637725'
p1208
sS'Night of the Demons (1988)'
p1209
S'0093624'
p1210
sS'Casino Royale (2006)'
p1211
S'0381061'
p1212
sS'Solitary Man (2009)'
p1213
S'1294213'
p1214
sS'Gates of Heaven (1978)'
p1215
S'0077598'
p1216
sS'Facing Ali (2009)'
p1217
S'1419318'
p1218
sS'Tyson (2008)'
p1219
S'1032821'
p1220
sS'Saint Ralph (2004)'
p1221
S'0384488'
p1222
sS'Bride & Prejudice (2004)'
p1223
S'0361411'
p1224
sS'100 Girls (2000)'
p1225
S'0214388'
p1226
sS'F for Fake (V\xc3\xa9rit\xc3\xa9s et mensonges) (1973)'
p1227
S'0072962'
p1228
sS'Hills Have Eyes, The (2006)'
p1229
S'4442030'
p1230
sS"Happily N'Ever After (2007)"
p1231
S'0308353'
p1232
sS'Much Ado About Nothing (2012)'
p1233
S'2094064'
p1234
sS'Spirit, The (2008)'
p1235
S'1477101'
p1236
sS'Pride & Prejudice (2005)'
p1237
S'0414387'
p1238
sS"I'm Not Scared (Io non ho paura) (2003)"
p1239
S'0326977'
p1240
sS'True Grit (2010)'
p1241
S'1403865'
p1242
sS'Last Mimzy, The (2007)'
p1243
S'0768212'
p1244
sS'Journey to the Center of the Earth (2008)'
p1245
S'0373051'
p1246
sS'Dictator, The (2012)'
p1247
S'1645170'
p1248
sS'Sherlock Holmes (2010)'
p1249
S'1522835'
p1250
sS'New World, The (2005)'
p1251
S'0402399'
p1252
sS'Fahrenheit 9/11 (2004)'
p1253
S'0361596'
p1254
sS'Dead End (2003)'
p1255
S'0308152'
p1256
sS'Starship Troopers 2: Hero of the Federation (2004)'
p1257
S'0367093'
p1258
sS'Something New (2006)'
p1259
S'0437777'
p1260
sS'Star Wars: The Clone Wars (2008)'
p1261
S'0458290'
p1262
sS"Mesrine: Public Enemy #1 (L'ennemi public n\xc2\xb01) (2008)"
p1263
S'0411272'
p1264
sS'3 Women (Three Women) (1977)'
p1265
S'0075612'
p1266
sS'Marley & Me (2008)'
p1267
S'0822832'
p1268
sS'Mission: Impossible - Ghost Protocol (2011)'
p1269
S'1229238'
p1270
sS'Pulse (2006)'
p1271
S'0454919'
p1272
sS'Smiles of a Summer Night (Sommarnattens leende) (1955)'
p1273
S'0048641'
p1274
sS'Caramel (Sukkar banat) (2007)'
p1275
S'0825236'
p1276
sS'Innocence (2004)'
p1277
S'0375233'
p1278
sS'Jane Eyre (1970)'
p1279
S'0065911'
p1280
sS'Superman/Batman: Apocalypse (2010)'
p1281
S'1673430'
p1282
sS'Shining Through (1992)'
p1283
S'0105391'
p1284
sS'Quincea\xc3\xb1era (2006)'
p1285
S'0451176'
p1286
sS'Hard Times (1975)'
p1287
S'0073092'
p1288
sS"Heartbreaker (L'Arnacoeur) (2010)"
p1289
S'1465487'
p1290
sS'Canterbury Tale, A (1944)'
p1291
S'0067647'
p1292
sS'Melinda and Melinda (2004)'
p1293
S'0378947'
p1294
sS'Petrified Forest, The (1936)'
p1295
S'0028096'
p1296
sS'Herbie: Fully Loaded (2005)'
p1297
S'0400497'
p1298
sS'Mogambo (1953)'
p1299
S'0046085'
p1300
sS'Alpha Dog (2007)'
p1301
S'1334219'
p1302
sS'Stray Dog (Nora inu) (1949)'
p1303
S'0041699'
p1304
sS'My Week with Marilyn (2011)'
p1305
S'1655420'
p1306
sS'Fond Kiss, A (Ae Fond Kiss...) (2004)'
p1307
S'0380366'
p1308
sS'Spread (2009)'
p1309
S'1186370'
p1310
sS'Pride and Prejudice (1995)'
p1311
S'0112130'
p1312
sS'Panic in the Streets (1950)'
p1313
S'0042832'
p1314
sS'Promised Land (2012)'
p1315
S'2091473'
p1316
sS'Gladiator (1992)'
p1317
S'0104346'
p1318
sS'George Harrison: Living in the Material World (2011)'
p1319
S'1113829'
p1320
sS'Ghosts of Girlfriends Past (2009)'
p1321
S'0821640'
p1322
sS'Facing Windows (Finestra di fronte, La) (2003)'
p1323
S'0352343'
p1324
sS'Hit and Run (Hit & Run) (2012)'
p1325
S'2097307'
p1326
sS'I Think I Love My Wife (2007)'
p1327
S'0770772'
p1328
sS'Raw Deal (1986)'
p1329
S'0091828'
p1330
sS'Little Fockers (2010)'
p1331
S'0970866'
p1332
sS'Quo Vadis (1951)'
p1333
S'0043949'
p1334
sS'Side Out (1990)'
p1335
S'0100613'
p1336
sS'Broken Embraces (Los abrazos rotos) (2009)'
p1337
S'0913425'
p1338
sS"Dr. Seuss' The Lorax (2012)"
p1339
S'2319314'
p1340
sS'Out for Justice (1991)'
p1341
S'0102614'
p1342
sS'Safety Last! (1923)'
p1343
S'0014429'
p1344
sS'Domino (2005)'
p1345
S'0421054'
p1346
sS'Pacifier, The (2005)'
p1347
S'0395699'
p1348
sS'Shrek the Halls (2007)'
p1349
S'0897387'
p1350
sS'Innkeepers, The (2011)'
p1351
S'1594562'
p1352
sS'World War Z (2013)'
p1353
S'0816711'
p1354
sS'Librarian, The: The Curse of the Judas Chalice (2008)'
p1355
S'1146438'
p1356
sS'Mega Shark vs. Giant Octopus (2009)'
p1357
S'1350498'
p1358
sS'This Means War (2012)'
p1359
S'1596350'
p1360
sS'Miss Congeniality 2: Armed and Fabulous (2005)'
p1361
S'0385307'
p1362
sS'Girl in the Caf\xc3\xa9, The (2005)'
p1363
S'0443518'
p1364
sS'Donkey Punch (2008)'
p1365
S'0988849'
p1366
sS'Assassination of Jesse James by the Coward Robert Ford, The (2007)'
p1367
S'0443680'
p1368
sS'Sherlock Holmes: A Game of Shadows (2011)'
p1369
S'1515091'
p1370
sS'Juno (2007)'
p1371
S'0467406'
p1372
sS'Rush (1991)'
p1373
S'0102820'
p1374
sS'This Is England (2006)'
p1375
S'0480025'
p1376
sS'Condemned, The (2007)'
p1377
S'0443473'
p1378
sS'Boston Strangler, The (1968)'
p1379
S'1198054'
p1380
sS'Lives of Others, The (Das leben der Anderen) (2006)'
p1381
S'0405094'
p1382
sS'Au revoir les enfants (1987)'
p1383
S'0092593'
p1384
sS'Ice Harvest, The (2005)'
p1385
S'0400525'
p1386
sS'Tourist, The (2010)'
p1387
S'1243957'
p1388
sS'Lover Come Back (1961)'
p1389
S'0055100'
p1390
sS'Slither (2006)'
p1391
S'0439815'
p1392
sS'Investigation of a Citizen Above Suspicion (Indagine su un cittadino al di sopra di ogni sospetto) (1970)'
p1393
S'0065889'
p1394
sS'Persuasion (2007)'
p1395
S'0844330'
p1396
sS'Harry and Tonto (1974)'
p1397
S'0071598'
p1398
sS'Wild Target (2010)'
p1399
S'1235189'
p1400
sS'Borat: Cultural Learnings of America for Make Benefit Glorious Nation of Kazakhstan (2006)'
p1401
S'0443453'
p1402
sS'Fist of the North Star (1995)'
p1403
S'0113074'
p1404
sS'Star Is Born, A (1954)'
p1405
S'1678962'
p1406
sS'Secret Things (Choses secr\xc3\xa8tes) (2002)'
p1407
S'0287963'
p1408
sS'Final Cut, The (2004)'
p1409
S'0346491'
p1410
sS'Ugly Dachshund, The (1966)'
p1411
S'0061135'
p1412
sS'Where in the World Is Osama Bin Laden? (2008)'
p1413
S'0963208'
p1414
sS"Nim's Island (2008)"
p1415
S'0410377'
p1416
sS'After the Sunset (2004)'
p1417
S'0367479'
p1418
sS'Princess Diaries 2: Royal Engagement, The (2004)'
p1419
S'0368933'
p1420
sS'Animal Farm (1954)'
p1421
S'0047834'
p1422
sS'Monsters vs Aliens: Mutant Pumpkins from Outer Space (2009)'
p1423
S'1482967'
p1424
sS'Meet the Spartans (2008)'
p1425
S'1073498'
p1426
sS'Gummo (1997)'
p1427
S'0119237'
p1428
sS'Three Lives of Thomasina, The (1964)'
p1429
S'0057579'
p1430
sS'Sisterhood of the Traveling Pants 2, The (2008)'
p1431
S'0403508'
p1432
sS'Carlos (2010)'
p1433
S'1321865'
p1434
sS'Alone in the Dark (2005)'
p1435
S'0369226'
p1436
sS'Killing Me Softly (2002)'
p1437
S'0250468'
p1438
sS'Rango (2011)'
p1439
S'1192628'
p1440
sS'Ring Two, The (2005)'
p1441
S'0377109'
p1442
sS'Against the Ropes (2004)'
p1443
S'0312329'
p1444
sS'Kids Are All Right, The (2010)'
p1445
S'0842926'
p1446
sS'Laramie Project, The (2002)'
p1447
S'0257850'
p1448
sS'Traitor (2008)'
p1449
S'0988047'
p1450
sS'Cul-de-sac (1966)'
p1451
S'0060268'
p1452
sS'OH in Ohio, The (2006)'
p1453
S'0422861'
p1454
sS'Act of Valor (2012)'
p1455
S'1591479'
p1456
sS'Nancy Drew (2007)'
p1457
S'0479500'
p1458
sS'Enemy Mine (1985)'
p1459
S'0089092'
p1460
sS'Thunderbirds Are GO (1966)'
p1461
S'0061094'
p1462
sS'Bellflower (2011)'
p1463
S'1242599'
p1464
sS'Bellboy, The (1960)'
p1465
S'0053644'
p1466
sS"Lorna's Silence (Le silence de Lorna) (2008)"
p1467
S'1186369'
p1468
sS'Through a Glass Darkly (S\xc3\xa5som i en spegel) (1961)'
p1469
S'0055499'
p1470
sS'Mr. Deeds Goes to Town (1936)'
p1471
S'0027996'
p1472
sS'Simpsons Movie, The (2007)'
p1473
S'1077671'
p1474
sS'Shooter (2007)'
p1475
S'0822854'
p1476
sS'Garfield: The Movie (2004)'
p1477
S'4842186'
p1478
sS'Hush... Hush, Sweet Charlotte (1964)'
p1479
S'0058213'
p1480
sS'Bad Sleep Well, The (Warui yatsu hodo yoku nemuru) (1960)'
p1481
S'0054460'
p1482
sS"Lion King II: Simba's Pride, The (1998)"
p1483
S'6304082'
p1484
sS'Chaos (2005)'
p1485
S'0402910'
p1486
sS'Oz the Great and Powerful (2013)'
p1487
S'1623205'
p1488
sS'House of Sand and Fog (2003)'
p1489
S'0315983'
p1490
sS'Black Widow (1987)'
p1491
S'0090738'
p1492
sS'Anne of the Thousand Days (1969)'
p1493
S'0064030'
p1494
sS'Ministry of Fear (1944)'
p1495
S'0037075'
p1496
sS'Matter of Life and Death, A (Stairway to Heaven) (1946)'
p1497
S'0038733'
p1498
sS'Tale of Two Sisters, A (Janghwa, Hongryeon) (2003)'
p1499
S'0365376'
p1500
sS'Meet Dave (2008)'
p1501
S'0765476'
p1502
sS'2 Guns (2013)'
p1503
S'1272878'
p1504
sS'Facing the Giants (2006)'
p1505
S'0805526'
p1506
sS'Phantom of Liberty, The (Fant\xc3\xb4me de la libert\xc3\xa9, Le) (1974)'
p1507
S'0071487'
p1508
sS'Thirst (Bakjwi) (2009)'
p1509
S'0762073'
p1510
sS'In Her Shoes (2005)'
p1511
S'0388125'
p1512
sS'Here Comes the Boom (2012)'
p1513
S'1648179'
p1514
sS'Twilight Zone: The Movie (1983)'
p1515
S'0086491'
p1516
sS'It (1990)'
p1517
S'0099864'
p1518
sS'Super (2010)'
p1519
S'1512235'
p1520
sS'Shaggy Dog, The (2006)'
p1521
S'2132787'
p1522
sS'Under Fire (1983)'
p1523
S'0086510'
p1524
sS'Dredd 3D (2012)'
p1525
S'2416040'
p1526
sS'12 Angry Men (1997)'
p1527
S'0118528'
p1528
sS'Battle in Seattle (2007)'
p1529
S'0850253'
p1530
sS'Quantum of Solace (2008)'
p1531
S'0830515'
p1532
sS'Girl with a Pearl Earring (2003)'
p1533
S'0335119'
p1534
sS'1492: Conquest of Paradise (1992)'
p1535
S'0103594'
p1536
sS'(500) Days of Summer (2009)'
p1537
S'2313757'
p1538
sS'Jin Roh: The Wolf Brigade (Jin-R\xc3\xb4) (1998)'
p1539
S'0193253'
p1540
sS'Crime Spree (2003)'
p1541
S'0310924'
p1542
sS'Philadelphia Experiment, The (1984)'
p1543
S'0087910'
p1544
sS'Even the Rain (Tambi\xc3\xa9n la lluvia) (2010)'
p1545
S'1422032'
p1546
sS'Mean Girls (2004)'
p1547
S'0377092'
p1548
sS'Jack the Giant Slayer (2013)'
p1549
S'1351685'
p1550
sS'Rescue Dawn (2006)'
p1551
S'0462504'
p1552
sS'Transamerica (2005)'
p1553
S'0407265'
p1554
sS'Delta Force, The (1986)'
p1555
S'0090927'
p1556
sS'Micki + Maude (1984)'
p1557
S'0087718'
p1558
sS"My Night At Maud's (Ma Nuit Chez Maud) (1969)"
p1559
S'0064612'
p1560
sS'Cowboys, The (1972)'
p1561
S'0068421'
p1562
sS'Summer Storm (Sommersturm) (2004)'
p1563
S'0420206'
p1564
sS'Tamara Drewe (2010)'
p1565
S'1486190'
p1566
sS'Yu-Gi-Oh! (2004)'
p1567
S'0403703'
p1568
sS'Monterey Pop (1968)'
p1569
S'0064689'
p1570
sS"Fool's Gold (2008)"
p1571
S'0770752'
p1572
sS'Threads (1984)'
p1573
S'0090163'
p1574
sS'Westerner, The (1940)'
p1575
S'0033253'
p1576
sS'Arbitrage (2012)'
p1577
S'1764183'
p1578
sS'Covenant, The (2006)'
p1579
S'0475944'
p1580
sS'Traffic (Trafic) (1971)'
p1581
S'0069400'
p1582
sS'Leap Year (2010)'
p1583
S'1216492'
p1584
sS'Death at a Funeral (2010)'
p1585
S'1321509'
p1586
sS'Walk on Water (2004)'
p1587
S'0352994'
p1588
sS'13 Assassins (J\xc3\xbbsan-nin no shikaku) (2010)'
p1589
S'1436045'
p1590
sS'Police Academy: Mission to Moscow (1994)'
p1591
S'0110857'
p1592
sS'Queen of Versailles, The (2012)'
p1593
S'2125666'
p1594
sS'Phat Girlz (2006)'
p1595
S'0490196'
p1596
sS'Blood and Bone (2009)'
p1597
S'0346631'
p1598
sS'One Night with the King (2006)'
p1599
S'0430431'
p1600
sS'Safety Not Guaranteed (2012)'
p1601
S'1862079'
p1602
sS'Valentin (Valent\xc3\xadn) (2002)'
p1603
S'0296915'
p1604
sS'Coco Before Chanel (Coco avant Chanel) (2009)'
p1605
S'1035736'
p1606
sS'Drinking Buddies (2013)'
p1607
S'2265398'
p1608
sS'Super 8 (2011)'
p1609
S'1650062'
p1610
sS'Rachel Getting Married (2008)'
p1611
S'1084950'
p1612
sS'Transformers: Revenge of the Fallen (2009)'
p1613
S'1055369'
p1614
sS'Hustle & Flow (2005)'
p1615
S'0410097'
p1616
sS'Porco Rosso (Crimson Pig) (Kurenai no buta) (1992)'
p1617
S'0104652'
p1618
sS'Iceman, The (2012)'
p1619
S'1491044'
p1620
sS'Anna Karenina (2012)'
p1621
S'1781769'
p1622
sS'Sleeping Beauty (2011)'
p1623
S'1588398'
p1624
sS'Spirit of the Beehive, The (Esp\xc3\xadritu de la colmena, El) (1973)'
p1625
S'0070040'
p1626
sS'Shrek 2 (2004)'
p1627
S'0298148'
p1628
sS"World's End, The (2013)"
p1629
S'5053238'
p1630
sS'You Will Meet a Tall Dark Stranger (2010)'
p1631
S'1182350'
p1632
sS'Early Summer (Bakush\xc3\xbb) (1951)'
p1633
S'0043313'
p1634
sS'SherryBaby (2006)'
p1635
S'0423169'
p1636
sS'Wreck-It Ralph (2012)'
p1637
S'1772341'
p1638
sS'Peyton Place (1957)'
p1639
S'0050839'
p1640
sS'My Date with Drew (2004)'
p1641
S'0378407'
p1642
sS'Dream House (2011)'
p1643
S'1462041'
p1644
sS'Nine (2009)'
p1645
S'0875034'
p1646
sS'Portrait of Jennie (1948)'
p1647
S'0040705'
p1648
sS'Run Fatboy Run (2007)'
p1649
S'0425413'
p1650
sS'Host, The (Gwoemul) (2006)'
p1651
S'0468492'
p1652
sS'Tremors 3: Back to Perfection (2001)'
p1653
S'0259685'
p1654
sS'Kill List (2011)'
p1655
S'1788391'
p1656
sS'Twentieth Century (1934)'
p1657
S'0025919'
p1658
sS'Chorus, The (Choristes, Les) (2004)'
p1659
S'0372824'
p1660
sS'Open Season 2 (2008)'
p1661
S'1107365'
p1662
sS'Thor: The Dark World (2013)'
p1663
S'1981115'
p1664
sS'Kopps (2003)'
p1665
S'0339230'
p1666
sS"Golden Age, The (L'\xc3\x82ge d'Or) (1930)"
p1667
S'0021577'
p1668
sS'In the Name of the King: A Dungeon Siege Tale (2008)'
p1669
S'0460780'
p1670
sS"Shoot 'Em Up (2007)"
p1671
S'0465602'
p1672
sS'Frost/Nixon (2008)'
p1673
S'0870111'
p1674
sS'ATL (2006)'
p1675
S'0466856'
p1676
sS'Hunger (2008)'
p1677
S'0986233'
p1678
sS'Never Let Me Go (2010)'
p1679
S'1334260'
p1680
sS'War Wagon, The (1967)'
p1681
S'0062472'
p1682
sS'Way, The (2010)'
p1683
S'1023114'
p1684
sS'Kid With a Bike, The (Le gamin au v\xc3\xa9lo) (2011)'
p1685
S'1827512'
p1686
sS'Walk Hard: The Dewey Cox Story (2007)'
p1687
S'0841046'
p1688
sS'Da Vinci Code, The (2006)'
p1689
S'5233162'
p1690
sS'Merchant of Venice, The (2004)'
p1691
S'0474519'
p1692
sS'Trip to the Moon, A (Voyage dans la lune, Le) (1902)'
p1693
S'0000417'
p1694
sS'Epic (2013)'
p1695
S'0848537'
p1696
sS'Repo! The Genetic Opera (2008)'
p1697
S'0963194'
p1698
sS'Escape Plan (2013)'
p1699
S'1211956'
p1700
sS'Date Movie (2006)'
p1701
S'0466342'
p1702
sS'Step Up 2 the Streets (2008)'
p1703
S'1023481'
p1704
sS'Enter the Dragon (1973)'
p1705
S'0070034'
p1706
sS'Flight (2012)'
p1707
S'1907668'
p1708
sS'Freedomland (2006)'
p1709
S'0349467'
p1710
sS'Air I Breathe, The (2007)'
p1711
S'0485851'
p1712
sS'Charlie St. Cloud (2010)'
p1713
S'1438254'
p1714
sS'Red Riding: 1974 (2009)'
p1715
S'1259574'
p1716
sS'Last Starfighter, The (1984)'
p1717
S'5287420'
p1718
sS'Interpreter, The (2005)'
p1719
S'0373926'
p1720
sS'Creation (2009)'
p1721
S'0974014'
p1722
sS'Valhalla Rising (2009)'
p1723
S'0862467'
p1724
sS'Wal-Mart: The High Cost of Low Price (2005)'
p1725
S'0473107'
p1726
sS'Goodbye, Columbus (1969)'
p1727
S'0064381'
p1728
sS'Unstoppable (2010)'
p1729
S'0477080'
p1730
sS'Space Chimps (2008)'
p1731
S'0482603'
p1732
sS'Soul Kitchen (2009)'
p1733
S'1244668'
p1734
sS'Boy and His Dog, A (1975)'
p1735
S'0072730'
p1736
sS'Cube Zero (2004)'
p1737
S'0377713'
p1738
sS'Killing Them Softly (2012)'
p1739
S'1764234'
p1740
sS'Before the Fall (NaPolA - Elite f\xc3\xbcr den F\xc3\xbchrer) (2004)'
p1741
S'0384369'
p1742
sS'Accepted (2006)'
p1743
S'0384793'
p1744
sS'Love Happens (2009)'
p1745
S'0899106'
p1746
sS'Thief of Bagdad, The (1924)'
p1747
S'0015400'
p1748
sS'Good Day to Die Hard, A (2013)'
p1749
S'1606378'
p1750
sS'Management (2008)'
p1751
S'1082853'
p1752
sS'Gozu (Gokud\xc3\xb4 ky\xc3\xb4fu dai-gekij\xc3\xb4: Gozu) (2003)'
p1753
S'0361668'
p1754
sS'Bank Job, The (2008)'
p1755
S'0200465'
p1756
sS'Warriors of Heaven and Earth (Tian di ying xiong) (2003)'
p1757
S'0374330'
p1758
sS'Mad Dog and Glory (1993)'
p1759
S'0107473'
p1760
sS'Bad Teacher (2011)'
p1761
S'1284575'
p1762
sS'Rush Hour 3 (2007)'
p1763
S'0293564'
p1764
sS'White Nights (1985)'
p1765
S'0090319'
p1766
sS'Major and the Minor, The (1942)'
p1767
S'0035019'
p1768
sS'War Horse (2011)'
p1769
S'1568911'
p1770
sS'Jason and the Argonauts (1963)'
p1771
S'0057197'
p1772
sS'Way Back, The (2010)'
p1773
S'1023114'
p1774
sS'Take Me Out to the Ball Game (1949)'
p1775
S'0041944'
p1776
sS'Good German, The (2006)'
p1777
S'0452624'
p1778
sS'Fast and the Furious: Tokyo Drift, The (Fast and the Furious 3, The) (2006)'
p1779
S'0463985'
p1780
sS'Only God Forgives (2013)'
p1781
S'1602613'
p1782
sS'Hamlet 2 (2008)'
p1783
S'1104733'
p1784
sS'Oliver Twist (1948)'
p1785
S'0040662'
p1786
sS'Brothers Grimm, The (2005)'
p1787
S'3138850'
p1788
sS'Mr. Arkadin (Confidential Report) (1955)'
p1789
S'0048393'
p1790
sS'Millions (2004)'
p1791
S'0366777'
p1792
sS'Chicken Little (2005)'
p1793
S'0371606'
p1794
sS'Friends with Benefits (2011)'
p1795
S'1632708'
p1796
sS'Secret Window (2004)'
p1797
S'0363988'
p1798
sS'Constantine (2005)'
p1799
S'0360486'
p1800
sS'Wind Will Carry Us, The (Bad ma ra khahad bord) (1999)'
p1801
S'0209463'
p1802
sS'Evening (2007)'
p1803
S'0765447'
p1804
sS'Hollow Man II (2006)'
p1805
S'0469916'
p1806
sS'Blackfish (2013)'
p1807
S'2545118'
p1808
sS'Zardoz (1974)'
p1809
S'0070948'
p1810
sS'AVPR: Aliens vs. Predator - Requiem (2007)'
p1811
S'0758730'
p1812
sS'London Boulevard (2010)'
p1813
S'1213648'
p1814
sS'Hot Rod (2007)'
p1815
S'0787475'
p1816
sS'Box of Moon Light (1996)'
p1817
S'0115738'
p1818
sS'Battlestar Galactica: Razor (2007)'
p1819
S'0991178'
p1820
sS"Everybody's Fine (2009)"
p1821
S'0780511'
p1822
sS'Attack the Gas Station! (Juyuso seubgyuksageun) (1999)'
p1823
S'0262246'
p1824
sS'Drag Me to Hell (2009)'
p1825
S'1127180'
p1826
sS'Extract (2009)'
p1827
S'1225822'
p1828
sS"World's Fastest Indian, The (2005)"
p1829
S'0412080'
p1830
sS'4 Months, 3 Weeks and 2 Days (4 luni, 3 saptam\xc3\xa2ni si 2 zile) (2007)'
p1831
S'1032846'
p1832
sS'*batteries not included (1987)'
p1833
S'0092494'
p1834
sS"Man Escaped, A (Un  condamn\xc3\xa9 \xc3\xa0 mort s'est \xc3\xa9chapp\xc3\xa9 ou Le vent souffle o\xc3\xb9 il veut) (1956)"
p1835
S'0049902'
p1836
sS"Mike's New Car (2002)"
p1837
S'0323250'
p1838
sS'127 Hours (2010)'
p1839
S'1542344'
p1840
sS'Control (Kontroll) (2003)'
p1841
S'0373981'
p1842
sS'TMNT (Teenage Mutant Ninja Turtles) (2007)'
p1843
S'1291150'
p1844
sS'Kick-Ass 2 (2013)'
p1845
S'1650554'
p1846
sS'Paperman (2012)'
p1847
S'2388725'
p1848
sS'Eagle Eye (2008)'
p1849
S'1059786'
p1850
sS'Man from Earth, The (2007)'
p1851
S'0756683'
p1852
sS'Sanctum (2011)'
p1853
S'0881320'
p1854
sS'Burn After Reading (2008)'
p1855
S'0887883'
p1856
sS'Star Trek (2009)'
p1857
S'0796366'
p1858
sS'Hell Ride (2008)'
p1859
S'0411475'
p1860
sS'Her (2013)'
p1861
S'1798709'
p1862
sS'Hellboy (2004)'
p1863
S'0167190'
p1864
sS'Nasty Girl, The (schreckliche M\xc3\xa4dchen, Das) (1990)'
p1865
S'0100557'
p1866
sS'Lost in Austen (2008)'
p1867
S'1117666'
p1868
sS'Red Eye (2005)'
p1869
S'0421239'
p1870
sS'28 Up (1985)'
p1871
S'0497059'
p1872
sS'Death Note (2006)'
p1873
S'0877057'
p1874
sS"Mesrine: Killer Instinct (L'instinct de mort) (2008)"
p1875
S'1259014'
p1876
sS'Young Adult (2011)'
p1877
S'1625346'
p1878
sS'MacGruber (2010)'
p1879
S'1470023'
p1880
sS'Half Nelson (2006)'
p1881
S'0468489'
p1882
sS'No Country for Old Men (2007)'
p1883
S'0477348'
p1884
sS'Fireproof (2008)'
p1885
S'1129423'
p1886
sS'Aeon Flux (2005)'
p1887
S'0402022'
p1888
sS'Detachment (2011)'
p1889
S'1683526'
p1890
sS'13 Tzameti (2005)'
p1891
S'0475169'
p1892
sS'Wizards (1977)'
p1893
S'0076929'
p1894
sS'Ax, The (couperet, Le) (2005)'
p1895
S'0422015'
p1896
sS'Olympus Has Fallen (2013)'
p1897
S'2302755'
p1898
sS'11:14 (2003)'
p1899
S'0331811'
p1900
sS'Mr. Brooks (2007)'
p1901
S'0780571'
p1902
sS'Captivity (2007)'
p1903
S'0374563'
p1904
sS'Missouri Breaks, The (1976)'
p1905
S'0074906'
p1906
sS'Water for Elephants (2011)'
p1907
S'1067583'
p1908
sS'Iron Man 2 (2010)'
p1909
S'1228705'
p1910
sS'Bachelorette (2012)'
p1911
S'1920849'
p1912
sS'Martha Marcy May Marlene (2011)'
p1913
S'1441326'
p1914
sS'Testament of Dr. Mabuse, The (Das Testament des Dr. Mabuse) (1933)'
p1915
S'0023563'
p1916
sS'Hurt Locker, The (2008)'
p1917
S'0887912'
p1918
sS'All the Boys Love Mandy Lane (2006)'
p1919
S'0490076'
p1920
sS'Silver Linings Playbook (2012)'
p1921
S'1045658'
p1922
sS'Wrestler, The (2008)'
p1923
S'1125849'
p1924
sS'Paperhouse (1988)'
p1925
S'0098061'
p1926
sS"Winter's Bone (2010)"
p1927
S'1399683'
p1928
sS'Flightplan (2005)'
p1929
S'0408790'
p1930
sS'Yogi Bear (2010)'
p1931
S'1302067'
p1932
sS'49 Up (2005)'
p1933
S'0473434'
p1934
sS'30 Days of Night: Dark Days (2010)'
p1935
S'1320304'
p1936
sS'Stick It (2006)'
p1937
S'0430634'
p1938
sS'Deep Water (2006)'
p1939
S'0460766'
p1940
sS'Volver (2006)'
p1941
S'0441909'
p1942
sS'Fubar (2002)'
p1943
S'0302585'
p1944
sS'Bad News Bears (2005)'
p1945
S'0408524'
p1946
sS'Disaster Movie (2008)'
p1947
S'1213644'
p1948
sS'Boys Are Back, The (2009)'
p1949
S'0926380'
p1950
sS'Johnny English Reborn (2011)'
p1951
S'1634122'
p1952
sS'Cloverfield (2008)'
p1953
S'1060277'
p1954
sS'Zeitgeist: The Movie (2007)'
p1955
S'1166827'
p1956
sS'Taxi (1998)'
p1957
S'0152930'
p1958
sS'Alfie (2004)'
p1959
S'0375173'
p1960
sS'Submarine (2010)'
p1961
S'1440292'
p1962
sS'Wanted (2009)'
p1963
S'1084972'
p1964
sS'Silent Hill: Revelation 3D (2012)'
p1965
S'0938330'
p1966
sS'Role Models (2008)'
p1967
S'0430922'
p1968
sS'Ten, The (2007)'
p1969
S'0381849'
p1970
sS'Cloud Atlas (2012)'
p1971
S'1371111'
p1972
sS"Love Don't Cost a Thing (2003)"
p1973
S'0337592'
p1974
sS'Bee Movie (2007)'
p1975
S'0389790'
p1976
sS'D.E.B.S. (2004)'
p1977
S'0367631'
p1978
sS'Silk (2007)'
p1979
S'0494834'
p1980
sS'Beastly (2011)'
p1981
S'1152398'
p1982
sS'Fighting (2009)'
p1983
S'1082601'
p1984
sS'Death Proof (2007)'
p1985
S'1028528'
p1986
sS'Behind the Candelabra (2013)'
p1987
S'1291580'
p1988
sS'Cadillac Records (2008)'
p1989
S'1042877'
p1990
sS'Narrow Margin, The (1952)'
p1991
S'0044954'
p1992
sS'Men in Black III (M.III.B.) (M.I.B.\xc2\xb3) (2012)'
p1993
S'1409024'
p1994
sS'Ladies Man, The (1961)'
p1995
S'6117502'
p1996
sS'From Beyond (1986)'
p1997
S'0091083'
p1998
sS'Lassie Come Home (1943)'
p1999
S'0036098'
p2000
sS'Just Another Love Story (K\xc3\xa6rlighed p\xc3\xa5 film) (2007)'
p2001
S'1024942'
p2002
sS'Bride Wars (2009)'
p2003
S'0901476'
p2004
sS'Wristcutters: A Love Story (2006)'
p2005
S'0477139'
p2006
sS'Planet 51 (2009)'
p2007
S'0762125'
p2008
sS'Another Earth (2011)'
p2009
S'1549572'
p2010
sS'Simple Men (1992)'
p2011
S'0105411'
p2012
sS'SSSSSSS (1973)'
p2013
S'0070622'
p2014
sS'Stuck on You (2003)'
p2015
S'0338466'
p2016
sS'Eddie Murphy Delirious (1983)'
p2017
S'0085474'
p2018
sS'Day Watch (Dnevnoy dozor) (2006)'
p2019
S'0409904'
p2020
sS"Mr. Magorium's Wonder Emporium (2007)"
p2021
S'0457419'
p2022
sS'Alvin and the Chipmunks (2007)'
p2023
S'0952640'
p2024
sS'Julie & Julia (2009)'
p2025
S'1135503'
p2026
sS'Mud (2012)'
p2027
S'1935179'
p2028
sS'Ichi the Killer (Koroshiya 1) (2001)'
p2029
S'0296042'
p2030
sS'Wimbledon (2004)'
p2031
S'0360201'
p2032
sS'Of Gods and Men (Des hommes et des dieux) (2010)'
p2033
S'1588337'
p2034
sS'Last of the Mohicans, The (1920)'
p2035
S'0011387'
p2036
sS'Song of the Thin Man (1947)'
p2037
S'0039853'
p2038
sS'Evangelion: 2.0 You Can (Not) Advance (Evangerion shin gekij\xc3\xb4ban: Ha) (2009)'
p2039
S'0860906'
p2040
sS"President's Analyst, The (1967)"
p2041
S'0062153'
p2042
sS'City of Joy (1992)'
p2043
S'0103976'
p2044
sS'Flying Deuces, The (1939)'
p2045
S'0031322'
p2046
sS'Welcome Home, Roscoe Jenkins (2008)'
p2047
S'0494652'
p2048
sS'Beasts of the Southern Wild (2012)'
p2049
S'2125435'
p2050
sS'Fun with Dick and Jane (2005)'
p2051
S'0369441'
p2052
sS"Charlie Wilson's War (2007)"
p2053
S'0472062'
p2054
sS'Fur: An Imaginary Portrait of Diane Arbus (2006)'
p2055
S'0422295'
p2056
sS"Seed of Chucky (Child's Play 5) (2004)"
p2057
S'0387575'
p2058
sS'Hitch Hikers Guide to the Galaxy, The (1981)'
p2059
S'0371724'
p2060
sS'Mamma Mia! (2008)'
p2061
S'0795421'
p2062
sS"I'm Not There (2007)"
p2063
S'0368794'
p2064
sS'Gentlemen Broncos (2009)'
p2065
S'1161418'
p2066
sS"Finian's Rainbow (1968)"
p2067
S'0062974'
p2068
sS'Down in the Valley (2005)'
p2069
S'0398027'
p2070
sS'Downfall (Untergang, Der) (2004)'
p2071
S'0363163'
p2072
sS'Christmas in July (1940)'
p2073
S'0032338'
p2074
sS'Horrible Bosses (2011)'
p2075
S'1499658'
p2076
sS'Roll Bounce (2005)'
p2077
S'0403455'
p2078
sS'Simon (2004)'
p2079
S'0393775'
p2080
sS'Secret Life of Bees, The (2008)'
p2081
S'1657669'
p2082
sS'13 Going on 30 (2004)'
p2083
S'0337563'
p2084
sS'New in Town (2009)'
p2085
S'1095174'
p2086
sS'Vanishing on 7th Street (2010)'
p2087
S'1452628'
p2088
sS'Those Magnificent Men in Their Flying Machines (1965)'
p2089
S'2147412'
p2090
sS'Hesher (2010)'
p2091
S'1403177'
p2092
sS'Thor (2011)'
p2093
S'0800369'
p2094
sS'Death Sentence (2007)'
p2095
S'0804461'
p2096
sS"Cirque du Freak: The Vampire's Assistant (2009)"
p2097
S'0450405'
p2098
sS'Zero de conduite (Zero for Conduct) (Z\xc3\xa9ro de conduite: Jeunes diables au coll\xc3\xa8ge) (1933)'
p2099
S'0024803'
p2100
sS'Hangover Part II, The (2011)'
p2101
S'1411697'
p2102
sS'Identity Thief (2013)'
p2103
S'2024432'
p2104
sS'Shark Tale (2004)'
p2105
S'0307453'
p2106
sS'Jeff, Who Lives at Home (2012)'
p2107
S'5802306'
p2108
sS'Bad Guy (Nabbeun namja) (2001)'
p2109
S'0307213'
p2110
sS'High School Musical 3: Senior Year (2008)'
p2111
S'0962726'
p2112
sS'Phoebe in Wonderland (2008)'
p2113
S'1034325'
p2114
sS'Cave of Forgotten Dreams (2010)'
p2115
S'1664894'
p2116
sS'Snapper, The (1993)'
p2117
S'6130372'
p2118
sS'Marie Antoinette (2006)'
p2119
S'0422720'
p2120
sS'I Could Never Be Your Woman (2007)'
p2121
S'0466839'
p2122
sS'Paradise Lost 2: Revelations (2000)'
p2123
S'0239894'
p2124
sS'Oldboy (2003)'
p2125
S'0364569'
p2126
sS'Dogtooth (Kynodontas) (2009)'
p2127
S'1379182'
p2128
sS'Mammoth (Mammut) (2009)'
p2129
S'1038043'
p2130
sS'Upstream Color (2013)'
p2131
S'2084989'
p2132
sS'People Like Us (2012)'
p2133
S'1716777'
p2134
sS'Johnson Family Vacation (2004)'
p2135
S'0359517'
p2136
sS'Iron Lady, The (2011)'
p2137
S'1007029'
p2138
sS'Sherlock Holmes: Dressed to Kill (1946)'
p2139
S'0038494'
p2140
sS'Sessions, The (Surrogate, The) (2012)'
p2141
S'1866249'
p2142
sS'Prison Break: The Final Break (2009)'
p2143
S'1131748'
p2144
sS'Thing Called Love, The (1993)'
p2145
S'0108327'
p2146
sS'Sybil (1976)'
p2147
S'0075296'
p2148
sS'Fortress (1992)'
p2149
S'0106950'
p2150
sS'Cat Soup (Nekojiru-so) (2001)'
p2151
S'0385586'
p2152
sS'Parker (2013)'
p2153
S'1904996'
p2154
sS'People Under the Stairs, The (1991)'
p2155
S'0105121'
p2156
sS'Philomena (2013)'
p2157
S'2431286'
p2158
sS'United 93 (2006)'
p2159
S'0475276'
p2160
sS'Savages, The (2007)'
p2161
S'0379976'
p2162
sS'Driving Lessons (2006)'
p2163
S'0446687'
p2164
sS'First $20 Million Is Always the Hardest, The (2002)'
p2165
S'0280674'
p2166
sS'Lady from Shanghai, The (1947)'
p2167
S'0305742'
p2168
sS'Finding Neverland (2004)'
p2169
S'0308644'
p2170
sS'Mean Creek (2004)'
p2171
S'0377091'
p2172
sS'Resident Evil: Afterlife (2010)'
p2173
S'1220634'
p2174
sS'Good Night, and Good Luck. (2005)'
p2175
S'0433383'
p2176
sS'Life Before Her Eyes, The (2007)'
p2177
S'0815178'
p2178
sS'Dying Gaul, The (2005)'
p2179
S'0384929'
p2180
sS'Night at the Museum: Battle of the Smithsonian (2009)'
p2181
S'1078912'
p2182
sS'Allegro non troppo (1977)'
p2183
S'0074121'
p2184
sS'Imaginary Heroes (2004)'
p2185
S'0373024'
p2186
sS'Cell 211 (Celda 211) (2009)'
p2187
S'1242422'
p2188
sS'Incident at Loch Ness (2004)'
p2189
S'0374639'
p2190
sS'Sleeping Dictionary, The (2003)'
p2191
S'0242888'
p2192
sS'Day the Earth Stood Still, The (2008)'
p2193
S'0970416'
p2194
sS'Proposition, The (2005)'
p2195
S'0421238'
p2196
sS'Kung Fu Panda: Secrets of the Furious Five (2008)'
p2197
S'1287845'
p2198
sS'Real Men (1987)'
p2199
S'0093828'
p2200
sS'Balls of Fury (2007)'
p2201
S'0424823'
p2202
sS'Man with the Iron Fists, The (2012)'
p2203
S'1258972'
p2204
sS'Interstella 5555: The 5tory of the 5ecret 5tar 5ystem (2003)'
p2205
S'0368667'
p2206
sS'Oliver Twist (2005)'
p2207
S'0380599'
p2208
sS'Call, The (2013)'
p2209
S'2258904'
p2210
sS'Better Tomorrow, A (Ying hung boon sik) (1986)'
p2211
S'0092263'
p2212
sS'Extremely Goofy Movie, An (2000)'
p2213
S'0208185'
p2214
sS'Maborosi (Maboroshi no hikari) (1995)'
p2215
S'0113725'
p2216
sS'End of Watch (2012)'
p2217
S'1855199'
p2218
sS"Army of Shadows (L'arm\xc3\xa9e des ombres) (1969)"
p2219
S'0064040'
p2220
sS'Primeval (2007)'
p2221
S'0808096'
p2222
sS'I Know Who Killed Me (2007)'
p2223
S'0897361'
p2224
sS'Raising Cain (1992)'
p2225
S'0105217'
p2226
sS'Woods, The (2006)'
p2227
S'0380066'
p2228
sS'Fountain, The (2006)'
p2229
S'0414993'
p2230
sS'Last Chance Harvey (2008)'
p2231
S'1046947'
p2232
sS'Lone Survivor (2013)'
p2233
S'1091191'
p2234
sS'Young Mr. Lincoln (1939)'
p2235
S'0032155'
p2236
sS'MirrorMask (2005)'
p2237
S'0366780'
p2238
sS"Illusionist, The (L'illusionniste) (2010)"
p2239
S'0775489'
p2240
sS'DiG! (2004)'
p2241
S'0388888'
p2242
sS'Joan of Arc (1999)'
p2243
S'0178145'
p2244
sS'In Time (2011)'
p2245
S'1637688'
p2246
sS'Point of No Return (1993)'
p2247
S'6095984'
p2248
sS'Hogfather (2006)'
p2249
S'0765458'
p2250
sS'Crank (2006)'
p2251
S'0479884'
p2252
sS'Uninvited, The (2009)'
p2253
S'1311540'
p2254
sS'Shrek the Third (2007)'
p2255
S'0413267'
p2256
sS'Twilight Saga: Breaking Dawn - Part 2, The (2012)'
p2257
S'1673434'
p2258
sS'Lady Sings the Blues (1972)'
p2259
S'0068828'
p2260
sS'Beyond the Sea (2004)'
p2261
S'0363473'
p2262
sS'Police Story 2 (Ging chaat goo si juk jaap) (1988)'
p2263
S'0095403'
p2264
sS"He's Just Not That Into You (2009)"
p2265
S'1001508'
p2266
sS'United States of Leland, The (2003)'
p2267
S'0301976'
p2268
sS'Sergeant York (1941)'
p2269
S'0034167'
p2270
sS'Book of Life, The (1998)'
p2271
S'0167059'
p2272
sS'Tokyo Godfathers (2003)'
p2273
S'0388473'
p2274
sS'Gray Matters (2006)'
p2275
S'0375785'
p2276
sS'Calamari Union (1985)'
p2277
S'0087020'
p2278
sS'Buried (2010)'
p2279
S'1462758'
p2280
sS'Step Up (2006)'
p2281
S'0462590'
p2282
sS'Wackness, The (2008)'
p2283
S'1082886'
p2284
sS'Defendor (2009)'
p2285
S'1303828'
p2286
sS'Dedication (2007)'
p2287
S'0490579'
p2288
sS'Battle of Algiers, The (La battaglia di Algeri) (1966)'
p2289
S'0058946'
p2290
sS'My Name is Khan (2010)'
p2291
S'1188996'
p2292
sS'Harry Potter and the Deathly Hallows: Part 1 (2010)'
p2293
S'0926084'
p2294
sS'Margaret (2011)'
p2295
S'0466893'
p2296
sS'Walk Like a Man (1987)'
p2297
S'0094288'
p2298
sS'I Am a Fugitive from a Chain Gang (1932)'
p2299
S'0023042'
p2300
sS'Shelter (2007)'
p2301
S'0942384'
p2302
sS'Joe Strummer: The Future Is Unwritten (2007)'
p2303
S'0800099'
p2304
sS'August: Osage County (2013)'
p2305
S'1322269'
p2306
sS'This Is 40 (2012)'
p2307
S'1758830'
p2308
sS'Jiro Dreams of Sushi (2011)'
p2309
S'1772925'
p2310
sS'Deep Cover (1992)'
p2311
S'0104073'
p2312
sS"Pooh's Heffalump Movie (2005)"
p2313
S'0407121'
p2314
sS'Aristocrats, The (2005)'
p2315
S'0436078'
p2316
sS'Onion Movie, The (2008)'
p2317
S'0392878'
p2318
sS'A-Team, The (2010)'
p2319
S'1386588'
p2320
sS'Terminal, The (2004)'
p2321
S'0362227'
p2322
sS'Street Fight (2005)'
p2323
S'0457496'
p2324
sS'Being Julia (2004)'
p2325
S'0340012'
p2326
sS'Pacific Rim (2013)'
p2327
S'1663662'
p2328
sS'Godzilla vs. The Sea Monster (Gojira-Ebira-Mosura: Nankai no daiketto) (1966)'
p2329
S'0060464'
p2330
sS"Snake in the Eagle's Shadow (Se ying diu sau) (1978)"
p2331
S'0078252'
p2332
sS'Reaping, The (2007)'
p2333
S'0444682'
p2334
sS'Water Horse: Legend of the Deep, The (2007)'
p2335
S'3010864'
p2336
sS'American Pie Presents: The Book of Love (American Pie 7: The Book of Love) (2009)'
p2337
S'1407050'
p2338
sS'I Spit on Your Grave (2010)'
p2339
S'1242432'
p2340
sS'Better Life, A (2011)'
p2341
S'4683988'
p2342
sS'Proposal, The (2009)'
p2343
S'1041829'
p2344
sS'Dear Frankie (2004)'
p2345
S'0377752'
p2346
sS'With Six You Get Eggroll (1968)'
p2347
S'0063821'
p2348
sS'Rock School (2005)'
p2349
S'0436727'
p2350
sS'Fail-Safe (1964)'
p2351
S'0058083'
p2352
sS'Redemption: The Stan Tookie Williams Story (2004)'
p2353
S'0388367'
p2354
sS'Flyboys (2006)'
p2355
S'0454824'
p2356
sS'Kamikaze Girls (Shimotsuma monogatari) (2004)'
p2357
S'0416220'
p2358
sS'Manderlay (2005)'
p2359
S'0342735'
p2360
sS'Green Butchers, The (Gr\xc3\xb8nne slagtere, De) (2003)'
p2361
S'0342492'
p2362
sS'2046 (2004)'
p2363
S'0212712'
p2364
sS'Limits of Control, The (2009)'
p2365
S'1135092'
p2366
sS'Elizabeth: The Golden Age (2007)'
p2367
S'1136297'
p2368
sS'State Fair (1945)'
p2369
S'0038116'
p2370
sS'Chasing Liberty (2004)'
p2371
S'0360139'
p2372
sS'Old Joy (2006)'
p2373
S'0468526'
p2374
sS'Guess Who (2005)'
p2375
S'0372237'
p2376
sS'Tale of Despereaux, The (2008)'
p2377
S'0420238'
p2378
sS'Libeled Lady (1936)'
p2379
S'0027884'
p2380
sS'Neil Young: Heart of Gold (2006)'
p2381
S'0473692'
p2382
sS'My Bloody Valentine 3-D (2009)'
p2383
S'1179891'
p2384
sS'Iron Man 3 (2013)'
p2385
S'1300854'
p2386
sS'Fog of War: Eleven Lessons from the Life of Robert S. McNamara, The (2003)'
p2387
S'0317910'
p2388
sS'Prince of Persia: The Sands of Time (2010)'
p2389
S'0473075'
p2390
sS'Electra Glide in Blue (1973)'
p2391
S'0070022'
p2392
sS'Class Action (1991)'
p2393
S'0101590'
p2394
sS'Racing Stripes (2005)'
p2395
S'0376105'
p2396
sS'Spider-Man 3 (2007)'
p2397
S'0413300'
p2398
sS'Byzantium (2012)'
p2399
S'1531901'
p2400
sS'Professionals, The (1966)'
p2401
S'0751999'
p2402
sS'Street Fighter II: The Animated Movie (Sutor\xc3\xaeto Fait\xc3\xa2 II gekij\xc3\xb4-ban) (1994)'
p2403
S'0114563'
p2404
sS'Chaos Theory (2007)'
p2405
S'1311642'
p2406
sS'Prime of Miss Jean Brodie, The (1969)'
p2407
S'0064840'
p2408
sS'Lost Skeleton of Cadavra, The (2002)'
p2409
S'0307109'
p2410
sS'Village, The (2004)'
p2411
S'0368447'
p2412
sS'Saw (2004)'
p2413
S'0387564'
p2414
sS'Bittersweet Life, A (Dalkomhan insaeng) (2005)'
p2415
S'0456912'
p2416
sS'Wedding Date, The (2005)'
p2417
S'0372532'
p2418
sS'Lions For Lambs (2007)'
p2419
S'0891527'
p2420
sS'Gunfighter, The (1950)'
p2421
S'0918647'
p2422
sS'Oh, God! You Devil (1984)'
p2423
S'0087835'
p2424
sS'Shoot the Piano Player (Tirez sur le pianiste) (1960)'
p2425
S'0054389'
p2426
sS'Treasure Island (1990)'
p2427
S'0100813'
p2428
sS'Kin-Dza-Dza! (1986)'
p2429
S'0091341'
p2430
sS'X-Men: First Class (2011)'
p2431
S'1270798'
p2432
sS'Major League II (1994)'
p2433
S'0110442'
p2434
sS'Pat Garrett and Billy the Kid (1973)'
p2435
S'0070518'
p2436
sS'Predators (2010)'
p2437
S'1424381'
p2438
sS'Red Dawn (2012)'
p2439
S'1234719'
p2440
sS'Bob & Carol & Ted & Alice (1969)'
p2441
S'0064100'
p2442
sS'3 Idiots (2009)'
p2443
S'1187043'
p2444
sS'[REC] (2007)'
p2445
S'1038988'
p2446
sS'Chronicles of Narnia: Prince Caspian, The (2008)'
p2447
S'0499448'
p2448
sS'Wanted (2008)'
p2449
S'0493464'
p2450
sS'Uptown Saturday Night (1974)'
p2451
S'0072351'
p2452
sS'Jackass 2.5 (2007)'
p2453
S'1117523'
p2454
sS'Testament (1983)'
p2455
S'0086429'
p2456
sS'Miracle at St. Anna (2008)'
p2457
S'1046997'
p2458
sS'Tabloid (2010)'
p2459
S'1704619'
p2460
sS'Sleepover (2004)'
p2461
S'0368975'
p2462
sS'Human Centipede, The (First Sequence) (2009)'
p2463
S'1467304'
p2464
sS'Chronicles of Narnia: The Voyage of the Dawn Treader, The (2010)'
p2465
S'0980970'
p2466
sS'Bewitched (2005)'
p2467
S'0374536'
p2468
sS'Saddest Music in the World, The (2003)'
p2469
S'0366996'
p2470
sS'You Kill Me (2007)'
p2471
S'0796375'
p2472
sS'Fever Pitch (2005)'
p2473
S'0332047'
p2474
sS'Seven Pounds (2008)'
p2475
S'0814314'
p2476
sS'You, the Living (Du levande) (2007)'
p2477
S'0445336'
p2478
sS'Pat and Mike (1952)'
p2479
S'0045012'
p2480
sS'Fort Apache (1948)'
p2481
S'0040369'
p2482
sS'12 Rounds (2009)'
p2483
S'1409315'
p2484
sS'Boss of It All, The (Direkt\xc3\xb8ren for det hele) (2006)'
p2485
S'0469754'
p2486
sS'Pain & Gain (2013)'
p2487
S'1980209'
p2488
sS'Dune (2000)'
p2489
S'0142032'
p2490
sS'Paradise (1991)'
p2491
S'0102631'
p2492
sS'Are We Done Yet? (2007)'
p2493
S'0422774'
p2494
sS'Expelled: No Intelligence Allowed (2008)'
p2495
S'1091617'
p2496
sS'Man, The (2005)'
p2497
S'0352248'
p2498
sS'Killers, The (1964)'
p2499
S'0058262'
p2500
sS'Adventures of Sherlock Holmes, The (1939)'
p2501
S'0086661'
p2502
sS'Son of Godzilla (Kaij\xc3\xbbt\xc3\xb4 no kessen: Gojira no musuko) (1967)'
p2503
S'0061856'
p2504
sS'Room Service (1938)'
p2505
S'0030696'
p2506
sS'Fright Night (2011)'
p2507
S'1438176'
p2508
sS'Humpday (2009)'
p2509
S'1334537'
p2510
sS'One Missed Call (2008)'
p2511
S'0479968'
p2512
sS'Splice (2009)'
p2513
S'1017460'
p2514
sS'Why We Fight (2005)'
p2515
S'0436971'
p2516
sS'Paul Blart: Mall Cop (2009)'
p2517
S'1114740'
p2518
sS'Killers, The (1946)'
p2519
S'0038669'
p2520
sS'Enchanted (2007)'
p2521
S'0461770'
p2522
sS"There's a Girl in My Soup (1970)"
p2523
S'0066449'
p2524
sS'This Island Earth (1955)'
p2525
S'0047577'
p2526
sS'Another Year (2010)'
p2527
S'1431181'
p2528
sS'Steamboat Bill, Jr. (1928)'
p2529
S'0019421'
p2530
sS'Imaginarium of Doctor Parnassus, The (2009)'
p2531
S'1054606'
p2532
sS"That's Entertainment, Part II (1976)"
p2533
S'0075323'
p2534
sS'About Time (2013)'
p2535
S'2194499'
p2536
sS'Vantage Point (2008)'
p2537
S'0443274'
p2538
sS'Son of the Mask (2005)'
p2539
S'0362165'
p2540
sS'Hobbit: An Unexpected Journey, The (2012)'
p2541
S'0903624'
p2542
sS'Comedians of Comedy, The (2005)'
p2543
S'0451021'
p2544
sS'Show Boat (1951)'
p2545
S'0044030'
p2546
sS'Hour of the Wolf (Vargtimmen) (1968)'
p2547
S'0063759'
p2548
sS'Moonwalker (1988)'
p2549
S'0095655'
p2550
sS'Skyfall (2012)'
p2551
S'1074638'
p2552
sS'Red Cliff (Chi bi) (2008)'
p2553
S'0425637'
p2554
sS'Submarino (2010)'
p2555
S'1322385'
p2556
sS'Star Wreck: In the Pirkinning (2005)'
p2557
S'0472566'
p2558
sS'Single Man, A (2009)'
p2559
S'1315981'
p2560
sS'Dead Like Me: Life After Death (2009)'
p2561
S'1079444'
p2562
sS'History of Violence, A (2005)'
p2563
S'0399146'
p2564
sS"Dodes'ka-den (Clickety-Clack) (1970)"
p2565
S'0065649'
p2566
sS'Jackass Number Two (2006)'
p2567
S'0493430'
p2568
sS'Batman Beyond: Return of the Joker (2000)'
p2569
S'0233298'
p2570
sS'Spiderwick Chronicles, The (2008)'
p2571
S'0416236'
p2572
sS'Stone (2010)'
p2573
S'1423995'
p2574
sS'School For Scoundrels (1960)'
p2575
S'0054279'
p2576
sS'Aliens of the Deep (2005)'
p2577
S'0417415'
p2578
sS'Martyrs (2008)'
p2579
S'1029234'
p2580
sS'Knowing (2009)'
p2581
S'0448011'
p2582
sS'Superman Returns (2006)'
p2583
S'0348150'
p2584
sS'Jindabyne (2006)'
p2585
S'0382765'
p2586
sS'Babies (B\xc3\xa9b\xc3\xa9(s)) (2010)'
p2587
S'1020938'
p2588
sS'Ivanhoe (1952)'
p2589
S'0044760'
p2590
sS'See No Evil (2006)'
p2591
S'0437179'
p2592
sS'Woman of the Year (1942)'
p2593
S'0035567'
p2594
sS'Reprise (2006)'
p2595
S'0827517'
p2596
sS'Moon (2009)'
p2597
S'1182345'
p2598
sS'Pirates of Silicon Valley (1999)'
p2599
S'0168122'
p2600
sS'Hitcher, The (2007)'
p2601
S'0455960'
p2602
sS'Babylon 5: Thirdspace (1998)'
p2603
S'0121804'
p2604
sS'Rare Exports: A Christmas Tale (Rare Exports) (2010)'
p2605
S'1401143'
p2606
sS'Speed Racer (2008)'
p2607
S'0811080'
p2608
sS'Louis C.K.: Chewed Up (2008)'
p2609
S'1190722'
p2610
sS'Eragon (2006)'
p2611
S'0449010'
p2612
sS'Winnebago Man (2009)'
p2613
S'1396557'
p2614
sS'Hound of the Baskervilles, The (1939)'
p2615
S'0031448'
p2616
sS"Something's Gotta Give (2003)"
p2617
S'0337741'
p2618
sS'Clerks II (2006)'
p2619
S'0424345'
p2620
sS'Unfaithfully Yours (1948)'
p2621
S'0040919'
p2622
sS'Great Raid, The (2005)'
p2623
S'0326905'
p2624
sS'Neon Genesis Evangelion: Death & Rebirth (Shin seiki Evangelion Gekij\xc3\xb4-ban: Shito shinsei) (1997)'
p2625
S'0169880'
p2626
sS'Bullhead (Rundskop) (2011)'
p2627
S'1821593'
p2628
sS'Spider-Man 2 (2004)'
p2629
S'0316654'
p2630
sS'After Earth (2013)'
p2631
S'1815862'
p2632
sS'Godsend (2004)'
p2633
S'0335121'
p2634
sS'Redbelt (2008)'
p2635
S'1012804'
p2636
sS'Bullet in the Head (1990)'
p2637
S'0099426'
p2638
sS'Woyzeck (1979)'
p2639
S'0080149'
p2640
sS'Potiche (2010)'
p2641
S'1521848'
p2642
sS'Project Nim (2011)'
p2643
S'1814836'
p2644
sS'Bothersome Man, The (Brysomme mannen, Den) (2006)'
p2645
S'0808185'
p2646
sS"Charlotte's Web (2006)"
p2647
S'0413895'
p2648
sS'Hamburger Hill (1987)'
p2649
S'0093137'
p2650
sS'Dogville (2003)'
p2651
S'0276919'
p2652
sS'Carnage (2011)'
p2653
S'1692486'
p2654
sS'Sex and the City (2008)'
p2655
S'1000774'
p2656
sS'Switch, The (2010)'
p2657
S'0889573'
p2658
sS'Frequently Asked Questions About Time Travel (2009)'
p2659
S'0910554'
p2660
sS'I Love You, Man (2009)'
p2661
S'1155056'
p2662
sS"Rust and Bone (De rouille et d'os) (2012)"
p2663
S'2053425'
p2664
sS'Zorba the Greek (Alexis Zorbas) (1964)'
p2665
S'0057831'
p2666
sS'Dangerous Method, A (2011)'
p2667
S'1571222'
p2668
sS'Armadillo (2010)'
p2669
S'1640680'
p2670
sS'Crazies, The (2010)'
p2671
S'1279935'
p2672
sS'Game Plan, The (2007)'
p2673
S'0492956'
p2674
sS'Perfect Crime, The (Crimen Ferpecto) (Ferpect Crime) (2004)'
p2675
S'0395125'
p2676
sS'Timecrimes (Cronocr\xc3\xadmenes, Los) (2007)'
p2677
S'0480669'
p2678
sS'Man of La Mancha (1972)'
p2679
S'0068909'
p2680
sS'Click (2006)'
p2681
S'0389860'
p2682
sS'Sex Is Comedy (2002)'
p2683
S'0304678'
p2684
sS'I Remember Mama (1948)'
p2685
S'0040458'
p2686
sS'Drifting Clouds (Kauas pilvet karkaavat) (1996)'
p2687
S'0116752'
p2688
sS'Skinwalkers (2007)'
p2689
S'1670065'
p2690
sS'Crush (1992)'
p2691
S'0104033'
p2692
sS'Frankenstein Unbound (1990)'
p2693
S'5087404'
p2694
sS'Butter (2011)'
p2695
S'1349451'
p2696
sS'Gomorrah (Gomorra) (2008)'
p2697
S'0929425'
p2698
sS'Sweet Bird of Youth (1962)'
p2699
S'0056541'
p2700
sS'Haunting in Connecticut, The (2009)'
p2701
S'0439602'
p2702
sS'Shortbus (2006)'
p2703
S'0367027'
p2704
sS'Maria Full of Grace (Maria, Llena eres de gracia) (2004)'
p2705
S'0390221'
p2706
sS'Wedding, A (1978)'
p2707
S'0078481'
p2708
sS'Wrath of the Titans (2012)'
p2709
S'1646987'
p2710
sS'Life and Death of Peter Sellers, The (2004)'
p2711
S'0352520'
p2712
sS'Dallas Buyers Club (2013)'
p2713
S'0790636'
p2714
sS'Every Little Step (2008)'
p2715
S'0977648'
p2716
sS'Seven Psychopaths (2012)'
p2717
S'1931533'
p2718
sS'Genghis Blues (1999)'
p2719
S'0187859'
p2720
sS'Monsters vs. Aliens (2009)'
p2721
S'0892782'
p2722
sS'Slaughterhouse-Five (1972)'
p2723
S'0069280'
p2724
sS'Hondo (1953)'
p2725
S'0045883'
p2726
sS'Raiders of the Lost Ark: The Adaptation (1989)'
p2727
S'0772251'
p2728
sS'Serious Man, A (2009)'
p2729
S'1019452'
p2730
sS'Dan in Real Life (2007)'
p2731
S'0480242'
p2732
sS'High Sierra (1941)'
p2733
S'0033717'
p2734
sS'Omen, The (2006)'
p2735
S'0833844'
p2736
sS'Bon Voyage (2003)'
p2737
S'0310778'
p2738
sS'Monte Carlo (2011)'
p2739
S'1067774'
p2740
sS'Hellboy II: The Golden Army (2008)'
p2741
S'0411477'
p2742
sS'Drive (2011)'
p2743
S'0780504'
p2744
sS'In-Laws, The (1979)'
p2745
S'0079336'
p2746
sS'Smiley Face (2007)'
p2747
S'0780608'
p2748
sS"M. Hulot\xe2\x80\x99s Holiday (Mr. Hulot's Holiday) (Vacances de Monsieur Hulot, Les) (1953)"
p2749
S'0046487'
p2750
sS'We Are Marshall (2006)'
p2751
S'0758794'
p2752
sS'One Million Years B.C. (1966)'
p2753
S'0060782'
p2754
sS'Ong-Bak 2: The Beginning (Ong Bak 2) (2008)'
p2755
S'0785035'
p2756
sS'Cold Souls (2009)'
p2757
S'1127877'
p2758
sS'Statement, The (2003)'
p2759
S'0436863'
p2760
sS'All Is Lost (2013)'
p2761
S'2017038'
p2762
sS'Super, The (1991)'
p2763
S'3093578'
p2764
sS'Crackerjack (2002)'
p2765
S'0291832'
p2766
sS'Phantom of the Opera, The (2004)'
p2767
S'6275704'
p2768
sS'Push (2009)'
p2769
S'0465580'
p2770
sS'Visioneers (2008)'
p2771
S'0833557'
p2772
sS'Dawn of the Dead (1978)'
p2773
S'0077402'
p2774
sS'Raising Helen (2004)'
p2775
S'0350028'
p2776
sS'Prime Cut (1972)'
p2777
S'0069121'
p2778
sS'Story of the Weeping Camel, The (Geschichte vom weinenden Kamel, Die) (2003)'
p2779
S'0373861'
p2780
sS'Taking Lives (2004)'
p2781
S'0364045'
p2782
sS'Hitman (2007)'
p2783
S'0465494'
p2784
sS'Times of Harvey Milk, The (1984)'
p2785
S'0088275'
p2786
sS'Escape from Alcatraz (1979)'
p2787
S'0079116'
p2788
sS'Sherlock Holmes and the Secret Weapon (1942)'
p2789
S'0035317'
p2790
sS'Music and Lyrics (2007)'
p2791
S'0758766'
p2792
sS'Flushed Away (2006)'
p2793
S'0424095'
p2794
sS'Edge of Heaven, The (Auf der anderen Seite) (2007)'
p2795
S'0880502'
p2796
sS'Game Change (2012)'
p2797
S'1848902'
p2798
sS'School Ties (1992)'
p2799
S'0105327'
p2800
sS'Whistleblower, The (2010)'
p2801
S'0145646'
p2802
sS'Ricky Gervais Live 3: Fame (2007)'
p2803
S'0993779'
p2804
sS'Renaissance (2006)'
p2805
S'0386741'
p2806
sS'Osama (2003)'
p2807
S'0368913'
p2808
sS'Lovely Bones, The (2009)'
p2809
S'0380510'
p2810
sS'Spy Kids: All the Time in the World in 4D (2011)'
p2811
S'1517489'
p2812
sS'Planet Terror (2007)'
p2813
S'1077258'
p2814
sS'Yes Men Fix the World, The (2009)'
p2815
S'1352852'
p2816
sS'Many Adventures of Winnie the Pooh, The (1977)'
p2817
S'0076363'
p2818
sS"Futurama: Bender's Big Score (2007)"
p2819
S'0471711'
p2820
sS'Last Shot, The (2004)'
p2821
S'0357054'
p2822
sS'Wolverine, The (2013)'
p2823
S'5096708'
p2824
sS'John Tucker Must Die (2006)'
p2825
S'0455967'
p2826
sS'Night Moves (1975)'
p2827
S'0073453'
p2828
sS'Corporation, The (2003)'
p2829
S'1568936'
p2830
sS'Cocaine Cowboys (2006)'
p2831
S'0380268'
p2832
sS'American, The (2010)'
p2833
S'3203738'
p2834
sS'Rocky Balboa (2006)'
p2835
S'0479143'
p2836
sS'New York Minute (2004)'
p2837
S'0363282'
p2838
sS"We Don't Live Here Anymore (2004)"
p2839
S'0361309'
p2840
sS'American Pie Presents The Naked Mile (American Pie 5: The Naked Mile) (2006)'
p2841
S'2989380'
p2842
sS'Kill the Irishman (2011)'
p2843
S'1416801'
p2844
sS"Cassandra's Dream (2007)"
p2845
S'0795493'
p2846
sS'Bucket Of Blood, A (1959)'
p2847
S'4756008'
p2848
sS"Grandma's Boy (2006)"
p2849
S'0456554'
p2850
sS'Leave Her to Heaven (1945)'
p2851
S'0037865'
p2852
sS'Mars Needs Moms (2011)'
p2853
S'1305591'
p2854
sS'Born Rich (2003)'
p2855
S'0342143'
p2856
sS'Pumping Iron (1977)'
p2857
S'0076578'
p2858
sS'Universal Soldier: Regeneration (2009)'
p2859
S'1288403'
p2860
sS'Metalstorm: The Destruction of Jared-Syn (1983)'
p2861
S'0085935'
p2862
sS'Evil Dead (2013)'
p2863
S'1288558'
p2864
sS'Colossus: The Forbin Project (1970)'
p2865
S'0064177'
p2866
sS"Valentine's Day (2010)"
p2867
S'0817230'
p2868
sS'Aviator, The (2004)'
p2869
S'0338751'
p2870
sS'P2 (2007)'
p2871
S'0804516'
p2872
sS'Diving Bell and the Butterfly, The (Scaphandre et le papillon, Le) (2007)'
p2873
S'0401383'
p2874
sS'Tess (1979)'
p2875
S'0080009'
p2876
sS'Call of Cthulhu, The (2005)'
p2877
S'4117900'
p2878
sS'History Boys, The (2006)'
p2879
S'0464049'
p2880
sS'Sita Sings the Blues (2008)'
p2881
S'1172203'
p2882
sS'When a Stranger Calls (2006)'
p2883
S'0455857'
p2884
sS'Frisco Kid, The (1979)'
p2885
S'0079180'
p2886
sS'Nobody Knows (Dare mo shiranai) (2004)'
p2887
S'0408664'
p2888
sS'Soloist, The (2009)'
p2889
S'0821642'
p2890
sS'Becket (1964)'
p2891
S'0057877'
p2892
sS'Fist of Legend (Jing wu ying xiong) (1994)'
p2893
S'0110200'
p2894
sS'Tokyo! (2008)'
p2895
S'0976060'
p2896
sS'Eiger Sanction, The (1975)'
p2897
S'0072926'
p2898
sS"Hairdresser's Husband, The (Le mari de la coiffeuse) (1990)"
p2899
S'0100112'
p2900
sS'Ugly, Dirty and Bad (Brutti sporchi e cattivi) (1976)'
p2901
S'0074252'
p2902
sS'Norbit (2007)'
p2903
S'0477051'
p2904
sS'I Sell the Dead (2008)'
p2905
S'0902290'
p2906
sS'Louis C.K.: Hilarious (2010)'
p2907
S'1421373'
p2908
sS'Short Film About Love, A (Kr\xc3\xb3tki film o milosci) (1988)'
p2909
S'0095467'
p2910
sS'Woman in Black, The (2012)'
p2911
S'1596365'
p2912
sS'Danny Deckchair (2003)'
p2913
S'0337960'
p2914
sS'How Do You Know (2010)'
p2915
S'1341188'
p2916
sS'Saved! (2004)'
p2917
S'0332375'
p2918
sS'Black Dynamite (2009)'
p2919
S'1190536'
p2920
sS'Get Low (2009)'
p2921
S'1194263'
p2922
sS'Star Chamber, The (1983)'
p2923
S'0086356'
p2924
sS'Frozen Land (Paha maa) (2005)'
p2925
S'0388318'
p2926
sS'Next Three Days, The (2010)'
p2927
S'1458175'
p2928
sS'Somersault (2004)'
p2929
S'0381429'
p2930
sS'Marine, The (2006)'
p2931
S'0419946'
p2932
sS'You Got Served (2004)'
p2933
S'0365957'
p2934
sS'Letters to Juliet (2010)'
p2935
S'0892318'
p2936
sS'Body Double (1984)'
p2937
S'0086984'
p2938
sS'Four Feathers, The (1939)'
p2939
S'0031334'
p2940
sS'Lakeview Terrace (2008)'
p2941
S'0947802'
p2942
sS'Ratatouille (2007)'
p2943
S'0382932'
p2944
sS"Girl Who Kicked the Hornet's Nest, The (Luftslottet som spr\xc3\xa4ngdes) (2009)"
p2945
S'1343097'
p2946
sS'Crank: High Voltage (2009)'
p2947
S'1121931'
p2948
sS'Hansel & Gretel: Witch Hunters (2013)'
p2949
S'1428538'
p2950
sS'Bad Lieutenant: Port of Call New Orleans (2009)'
p2951
S'1095217'
p2952
sS'Disconnect (2012)'
p2953
S'1433811'
p2954
sS'DarkBlueAlmostBlack (Azuloscurocasinegro) (2006)'
p2955
S'0452971'
p2956
sS'Come Back, Little Sheba (1952)'
p2957
S'0044509'
p2958
sS'Emma (2009)'
p2959
S'1366312'
p2960
sS'Flipped (2010)'
p2961
S'0817177'
p2962
sS'Change-Up, The (2011)'
p2963
S'1488555'
p2964
sS'Fish Tank (2009)'
p2965
S'1232776'
p2966
sS'Great White Hope, The (1970)'
p2967
S'0065797'
p2968
sS'Paul (2011)'
p2969
S'1092026'
p2970
sS'Two Hands (1999)'
p2971
S'0145547'
p2972
sS'Greed (1924)'
p2973
S'0015881'
p2974
sS'Hitcher, The (1986)'
p2975
S'0091209'
p2976
sS'AVP: Alien vs. Predator (2004)'
p2977
S'0370263'
p2978
sS'Letter, The (1940)'
p2979
S'0032701'
p2980
sS'Three Faces of Eve, The (1957)'
p2981
S'0051077'
p2982
sS'Shadows (1959)'
p2983
S'0053270'
p2984
sS'Machine Gun Preacher (2011)'
p2985
S'1586752'
p2986
sS'Sentinel, The (2006)'
p2987
S'0443632'
p2988
sS'Up in the Air (2009)'
p2989
S'1193138'
p2990
sS'Twilight (2008)'
p2991
S'1099212'
p2992
sS'Eros (2004)'
p2993
S'0343663'
p2994
sS"Look Who's Talking Too (1990)"
p2995
S'0100050'
p2996
sS'Flags of Our Fathers (2006)'
p2997
S'0418689'
p2998
sS'Dreamgirls (2006)'
p2999
S'0443489'
p3000
sS'Deep Sea 3D (2006)'
p3001
S'0424942'
p3002
sS'As it is in Heaven (S\xc3\xa5 som i himmelen) (2004)'
p3003
S'0382330'
p3004
sS'Everything Must Go (2010)'
p3005
S'1531663'
p3006
sS'Informers, The (2008)'
p3007
S'0865554'
p3008
sS'Calendar Girls (2003)'
p3009
S'0337909'
p3010
sS'Masculin F\xc3\xa9minin (1966)'
p3011
S'0060675'
p3012
sS'Roots (1977)'
p3013
S'0075572'
p3014
sS'Silence, The (Tystnaden) (1963)'
p3015
S'0057611'
p3016
sS'Inglourious Basterds (2009)'
p3017
S'0361748'
p3018
sS'Gone in 60 Seconds (1974)'
p3019
S'0071571'
p3020
sS'Breakfast on Pluto (2005)'
p3021
S'0411195'
p3022
sS'Failure to Launch (2006)'
p3023
S'0427229'
p3024
sS'Killer Elite (2011)'
p3025
S'1448755'
p3026
sS'Mom and Dad Save the World (1992)'
p3027
S'0104905'
p3028
sS'Aqua Teen Hunger Force Colon Movie Film for Theaters (2007)'
p3029
S'0455326'
p3030
sS"We're No Angels (1955)"
p3031
S'0048801'
p3032
sS'Dilemma, The (2011)'
p3033
S'1578275'
p3034
sS'Beautiful Country, The (2004)'
p3035
S'0273108'
p3036
sS'Live Free or Die (2006)'
p3037
S'0432318'
p3038
sS'Transporter 2 (2005)'
p3039
S'0388482'
p3040
sS'Dinner at Eight (1933)'
p3041
S'0023948'
p3042
sS'Friends with Kids (2011)'
p3043
S'1720616'
p3044
sS'Million Dollar Baby (2004)'
p3045
S'0405159'
p3046
sS'Cars (2006)'
p3047
S'0317219'
p3048
sS'Midnight (1939)'
p3049
S'0031647'
p3050
sS'Lego Movie, The (2014)'
p3051
S'1490017'
p3052
sS'Tunnel, The (Tunnel, Der) (2001)'
p3053
S'0251447'
p3054
sS'Babel (2006)'
p3055
S'0449467'
p3056
sS'Enron: The Smartest Guys in the Room (2005)'
p3057
S'1016268'
p3058
sS'Go-Getter, The (2007)'
p3059
S'0479289'
p3060
sS'Crazy, Stupid, Love. (2011)'
p3061
S'1570728'
p3062
sS'Bedazzled (1967)'
p3063
S'0061391'
p3064
sS"Teacher's Pet (2004)"
p3065
S'0350194'
p3066
sS"Jennifer's Body (2009)"
p3067
S'1131734'
p3068
sS"Wallace and Gromit in 'A Matter of Loaf and Death' (2008)"
p3069
S'1118511'
p3070
sS'Disappearance of Alice Creed, The (2009)'
p3071
S'1379177'
p3072
sS'Spy Next Door, The (2010)'
p3073
S'1273678'
p3074
sS'Tekkonkinkreet (Tekkon kinkur\xc3\xaeto) (2006)'
p3075
S'0831888'
p3076
sS'Killer Klowns from Outer Space (1988)'
p3077
S'0095444'
p3078
sS'Good bye, Lenin! (2003)'
p3079
S'0301357'
p3080
sS'Dirty Love (2005)'
p3081
S'0327643'
p3082
sS'Turistas (2006)'
p3083
S'0454970'
p3084
sS'Viva Las Vegas (1964)'
p3085
S'0058725'
p3086
sS"Ocean's Twelve (2004)"
p3087
S'0349903'
p3088
sS'At the Circus (1939)'
p3089
S'0031060'
p3090
sS'Postal (2007)'
p3091
S'0486640'
p3092
sS'Brothers (Br\xc3\xb8dre) (2004)'
p3093
S'0386342'
p3094
sS'Tillman Story, The (2010)'
p3095
S'1568334'
p3096
sS'Primer (2004)'
p3097
S'0390384'
p3098
sS'Eastern Promises (2007)'
p3099
S'0765443'
p3100
sS'Exterminating Angel, The (\xc3\x81ngel exterminador, El) (1962)'
p3101
S'0056732'
p3102
sS'Pitk\xc3\xa4 kuuma kes\xc3\xa4 (1999)'
p3103
S'1972199'
p3104
sS'Germany Year Zero (Germania anno zero) (Deutschland im Jahre Null) (1948)'
p3105
S'0039417'
p3106
sS'Lake House, The (2006)'
p3107
S'0410297'
p3108
sS'Swing Shift (1984)'
p3109
S'0088213'
p3110
sS'Saw V (2008)'
p3111
S'1132626'
p3112
sS'Venom (2005)'
p3113
S'0428251'
p3114
sS'Gangster Squad (2013)'
p3115
S'1321870'
p3116
sS'Stoning of Soraya M., The (2008)'
p3117
S'1277737'
p3118
sS'Unknown (2011)'
p3119
S'1401152'
p3120
sS'This Must Be the Place (2011)'
p3121
S'1440345'
p3122
sS'Thing, The (2011)'
p3123
S'5021548'
p3124
sS'Epic Movie (2007)'
p3125
S'0799949'
p3126
sS'Ice Pirates, The (1984)'
p3127
S'0087451'
p3128
sS'In a World... (2013)'
p3129
S'2294677'
p3130
sS'Immigrant, The (1917)'
p3131
S'0008133'
p3132
sS'Peaceful Warrior (2006)'
p3133
S'0438315'
p3134
sS'Machinist, The (Maquinista, El) (2004)'
p3135
S'0361862'
p3136
sS'Murderball (2005)'
p3137
S'0436613'
p3138
sS'Ruins, The (2008)'
p3139
S'0963794'
p3140
sS'Wind and the Lion, The (1975)'
p3141
S'0073906'
p3142
sS'Fullmetal Alchemist the Movie: Conqueror of Shamballa (Gekij\xc3\xb4-ban hagane no renkinjutsushi: Shanbara wo yuku mono) (2005)'
p3143
S'0485323'
p3144
sS'9 Songs (2004)'
p3145
S'0411705'
p3146
sS'Night Watch (Nochnoy dozor) (2004)'
p3147
S'0403358'
p3148
sS'Belly of an Architect, The (1987)'
p3149
S'0092637'
p3150
sS'Ghost Rider (2007)'
p3151
S'0259324'
p3152
sS'China Syndrome, The (1979)'
p3153
S'0078966'
p3154
sS'Big Fish (2003)'
p3155
S'0319061'
p3156
sS'Anacondas: The Hunt for the Blood Orchid (2004)'
p3157
S'0366174'
p3158
sS'Half Light (2006)'
p3159
S'0412798'
p3160
sS"Howl's Moving Castle (Hauru no ugoku shiro) (2004)"
p3161
S'0347149'
p3162
sS'Map of the Human Heart (1993)'
p3163
S'0104812'
p3164
sS'Hooper (1978)'
p3165
S'0077696'
p3166
sS'Cursed (2005)'
p3167
S'0257516'
p3168
sS'Paradise Now (2005)'
p3169
S'0445620'
p3170
sS'Brothers Bloom, The (2008)'
p3171
S'0844286'
p3172
sS'Sugar (2008)'
p3173
S'0990413'
p3174
sS'Anchorman: The Legend of Ron Burgundy (2004)'
p3175
S'0357413'
p3176
sS"King Solomon's Mines (1950)"
p3177
S'0042646'
p3178
sS'Somewhere (2010)'
p3179
S'1421051'
p3180
sS'V for Vendetta (2006)'
p3181
S'0434409'
p3182
sS'Last House on the Left, The (2009)'
p3183
S'0844708'
p3184
sS'Suddenly (1954)'
p3185
S'0047542'
p3186
sS'21 and Over (2013)'
p3187
S'2849586'
p3188
sS'Teen Wolf Too (1987)'
p3189
S'0094118'
p3190
sS'Joint Security Area (Gongdong gyeongbi guyeok JSA) (2000)'
p3191
S'0260991'
p3192
sS'Hotel Transylvania (2012)'
p3193
S'0837562'
p3194
sS'2 Days in Paris (2007)'
p3195
S'0841044'
p3196
sS'North Country (2005)'
p3197
S'0395972'
p3198
sS'How the West Was Won (1962)'
p3199
S'0056085'
p3200
sS'Lonesome Jim (2005)'
p3201
S'0385056'
p3202
sS'Passion of Anna, The (Passion, En) (1969)'
p3203
S'0064793'
p3204
sS'Dark Knight, The (2008)'
p3205
S'0581607'
p3206
sS'Jobs (2013)'
p3207
S'2357129'
p3208
sS'Hide and Seek (2005)'
p3209
S'0382077'
p3210
sS'Last Night (2010)'
p3211
S'1294688'
p3212
sS"Devil's Rejects, The (2005)"
p3213
S'4965644'
p3214
sS'Zathura (2005)'
p3215
S'0406375'
p3216
sS'Observe and Report (2009)'
p3217
S'1197628'
p3218
sS'On the Road (2012)'
p3219
S'0337692'
p3220
sS'Kinsey (2004)'
p3221
S'0362269'
p3222
sS'Lone Ranger, The (2013)'
p3223
S'0635367'
p3224
sS'Corbeau, Le (Raven, The) (1943)'
p3225
S'0035679'
p3226
sS'Jacket, The (2005)'
p3227
S'0366627'
p3228
sS'Clifford (1994)'
p3229
S'0109447'
p3230
sS'Naked Spur, The (1953)'
p3231
S'0044953'
p3232
sS'Secret of Kells, The (2009)'
p3233
S'0485601'
p3234
sS'Ghost Rider: Spirit of Vengeance (2012)'
p3235
S'2517380'
p3236
sS'Ten Little Indians (1965)'
p3237
S'0061075'
p3238
sS'Pirates of Penzance, The (1983)'
p3239
S'0086112'
p3240
sS'GasLand (2010)'
p3241
S'1558250'
p3242
sS'White Zombie (1932)'
p3243
S'0023694'
p3244
sS'Holy Mountain, The (Monta\xc3\xb1a sagrada, La) (1973)'
p3245
S'0071615'
p3246
sS'Vie en Rose, La (M\xc3\xb4me, La) (2007)'
p3247
S'0450188'
p3248
sS'Lord of War (2005)'
p3249
S'0399295'
p3250
sS'Blackadder Back & Forth (1999)'
p3251
S'0212579'
p3252
sS'Memoirs of a Geisha (2005)'
p3253
S'0397535'
p3254
sS'Memphis Belle: A Story of a Flying Fortress, The (1944)'
p3255
S'0036152'
p3256
sS'Exam (2009)'
p3257
S'1258197'
p3258
sS'Hugo (2011)'
p3259
S'0970179'
p3260
sS'Metropia (2009)'
p3261
S'0985058'
p3262
sS'Last Days (2005)'
p3263
S'0403217'
p3264
sS'Perfume: The Story of a Murderer (2006)'
p3265
S'0396171'
p3266
sS'Running Scared (2006)'
p3267
S'0404390'
p3268
sS'Meet the Applegates (1991)'
p3269
S'0100129'
p3270
sS'Water (2005)'
p3271
S'0240200'
p3272
sS'Mirrors (2008)'
p3273
S'0790686'
p3274
sS'Thirteen (2003)'
p3275
S'0328538'
p3276
sS"All the King's Men (2006)"
p3277
S'0405676'
p3278
sS"Ward, The (John Carpenter's The Ward) (2010)"
p3279
S'1369706'
p3280
sS'Black Book (Zwartboek) (2006)'
p3281
S'0389557'
p3282
sS'Joneses, The (2009)'
p3283
S'1285309'
p3284
sS'Angus, Thongs and Perfect Snogging (2008)'
p3285
S'0963743'
p3286
sS'Let the Right One In (L\xc3\xa5t den r\xc3\xa4tte komma in) (2008)'
p3287
S'1139797'
p3288
sS'Van Wilder 2: The Rise of Taj (2006)'
p3289
S'0480271'
p3290
sS'Three Musketeers, The (1973)'
p3291
S'0232399'
p3292
sS'Night at the Museum (2006)'
p3293
S'0477347'
p3294
sS'Strada, La (1954)'
p3295
S'0047528'
p3296
sS'Premonition (2007)'
p3297
S'0477071'
p3298
sS'Stormbreaker (Alex Rider: Operation Stormbreaker) (2006)'
p3299
S'0457495'
p3300
sS'Return, The (2006)'
p3301
S'0348150'
p3302
sS'Americanization of Emily, The (1964)'
p3303
S'0057840'
p3304
sS'City of Ember (2008)'
p3305
S'0970411'
p3306
sS'Home at the End of the World, A (2004)'
p3307
S'0359423'
p3308
sS'Chumscrubber, The (2005)'
p3309
S'0406650'
p3310
sS'Yes Men, The (2003)'
p3311
S'0379593'
p3312
sS'Hair (1979)'
p3313
S'0079261'
p3314
sS'Kit Kittredge: An American Girl (2008)'
p3315
S'0846308'
p3316
sS'Girl Who Played with Fire, The (Flickan som lekte med elden) (2009)'
p3317
S'1216487'
p3318
sS'Stop-Loss (2008)'
p3319
S'0489281'
p3320
sS"Lemony Snicket's A Series of Unfortunate Events (2004)"
p3321
S'0339291'
p3322
sS'Riding Giants (2004)'
p3323
S'0389326'
p3324
sS'Sniper (1993)'
p3325
S'0108171'
p3326
sS'Tsotsi (2005)'
p3327
S'0468565'
p3328
sS"Beat That My Heart Skipped, The (battre mon coeur s'est arr\xc3\xaat\xc3\xa9, De) (2005)"
p3329
S'0411270'
p3330
sS'Anchorman 2: The Legend Continues (2013)'
p3331
S'1229340'
p3332
sS'Deliver Us from Evil (2006)'
p3333
S'0814075'
p3334
sS'Claymation Christmas Celebration, A (1987)'
p3335
S'0272045'
p3336
sS'Eden Lake (2008)'
p3337
S'1020530'
p3338
sS'Cypher (2002)'
p3339
S'0284978'
p3340
sS'Snakes on a Plane (2006)'
p3341
S'0417148'
p3342
sS"Alice Doesn't Live Here Anymore (1974)"
p3343
S'0071115'
p3344
sS'Starting Out in the Evening (2007)'
p3345
S'0758784'
p3346
sS'10 Items or Less (2006)'
p3347
S'0499603'
p3348
sS'Lost City, The (2005)'
p3349
S'0343996'
p3350
sS'Decalogue, The (Dekalog) (1989)'
p3351
S'0092337'
p3352
sS'Take This Waltz (2011)'
p3353
S'1592281'
p3354
sS'Ray (2004)'
p3355
S'0350258'
p3356
sS'Cleaner (2007)'
p3357
S'0896798'
p3358
sS'Dark Knight Rises, The (2012)'
p3359
S'2544698'
p3360
sS'Bourne Legacy, The (2012)'
p3361
S'5217490'
p3362
sS'Man of Steel (2013)'
p3363
S'0770828'
p3364
sS'Gunga Din (1939)'
p3365
S'0031398'
p3366
sS'American Haunting, An (2005)'
p3367
S'0429573'
p3368
sS'Stage Door (1937)'
p3369
S'0029604'
p3370
sS'Real Steel (2011)'
p3371
S'0433035'
p3372
sS'Tuesdays with Morrie (1999)'
p3373
S'0207805'
p3374
sS'Metallica: Some Kind of Monster (2004)'
p3375
S'0387412'
p3376
sS'Five Obstructions, The (Fem bensp\xc3\xa6nd, De) (2003)'
p3377
S'0354575'
p3378
sS'Futurama: Into the Wild Green Yonder (2009)'
p3379
S'1054487'
p3380
sS'JCVD (2008)'
p3381
S'1130988'
p3382
sS'Yellowbeard (1983)'
p3383
S'0086618'
p3384
sS"Bush's Brain (2004)"
p3385
S'0403910'
p3386
sS'Happy Feet (2006)'
p3387
S'0366548'
p3388
sS'Descent, The (2005)'
p3389
S'0435625'
p3390
sS'At Play in the Fields of the Lord (1991)'
p3391
S'0101373'
p3392
sS'Me and Orson Welles (2008)'
p3393
S'1175506'
p3394
sS'This Film Is Not Yet Rated (2006)'
p3395
S'0493459'
p3396
sS'From Paris with Love (2010)'
p3397
S'1179034'
p3398
sS'Where the Wild Things Are (2009)'
p3399
S'0386117'
p3400
sS'Cinderella (1997)'
p3401
S'0128996'
p3402
sS'Sideways (2004)'
p3403
S'0375063'
p3404
sS'Harry Potter and the Goblet of Fire (2005)'
p3405
S'0330373'
p3406
sS'Red Lights (2012)'
p3407
S'1748179'
p3408
sS'Amelia (2009)'
p3409
S'1129445'
p3410
sS"King Solomon's Mines (1985)"
p3411
S'0089421'
p3412
sS'Ten Canoes (2006)'
p3413
S'0466399'
p3414
sS'Grudge 3, The (2009)'
p3415
S'1053859'
p3416
sS'W. (2008)'
p3417
S'1175491'
p3418
sS'Elektra (2005)'
p3419
S'0357277'
p3420
sS'My Name Is Bruce (2007)'
p3421
S'0489235'
p3422
sS'Underdog (2007)'
p3423
S'0467110'
p3424
sS'Island, The (2005)'
p3425
S'0399201'
p3426
sS'Good Luck Chuck (2007)'
p3427
S'0452625'
p3428
sS'Beguiled, The (1971)'
p3429
S'0066819'
p3430
sS'Orphan (2009)'
p3431
S'1148204'
p3432
sS'Dracula: Prince of Darkness (1966)'
p3433
S'0059127'
p3434
sS'Thunderbirds (2004)'
p3435
S'0167456'
p3436
sS'Kinky Boots (2005)'
p3437
S'0434124'
p3438
sS'Addams Family Reunion (1998)'
p3439
S'0146402'
p3440
sS'Raid: Redemption, The (Serbuan maut) (2011)'
p3441
S'1899353'
p3442
sS'I Now Pronounce You Chuck and Larry (2007)'
p3443
S'1048522'
p3444
sS'Jumper (2008)'
p3445
S'0489099'
p3446
sS'Last King of Scotland, The (2006)'
p3447
S'0455590'
p3448
sS"It's a Boy Girl Thing (2006)"
p3449
S'0482527'
p3450
sS'Gia (1998)'
p3451
S'0123865'
p3452
sS'Tristram Shandy: A Cock and Bull Story (2005)'
p3453
S'0423409'
p3454
sS'Set-Up, The (1949)'
p3455
S'0041859'
p3456
sS'Red (2008)'
p3457
S'0972883'
p3458
sS'Battlestar Galactica: The Plan (2009)'
p3459
S'1286130'
p3460
sS'White Noise (2005)'
p3461
S'0375210'
p3462
sS'To Hell and Back (1955)'
p3463
S'0048729'
p3464
sS'Promise, The (Wu ji) (2005)'
p3465
S'0417976'
p3466
sS'Eel, The (Unagi) (1997)'
p3467
S'0120408'
p3468
sS'Rise of the Guardians (2012)'
p3469
S'1446192'
p3470
sS"Conan O'Brien Can't Stop (2011)"
p3471
S'1864288'
p3472
sS'Taking of Pelham 1 2 3, The (2009)'
p3473
S'1111422'
p3474
sS'Ricky Gervais Live 4: Science (2010)'
p3475
S'1815899'
p3476
sS'Monsters (2010)'
p3477
S'1470827'
p3478
sS'Thin Man Goes Home, The (1945)'
p3479
S'0037365'
p3480
sS'Duchess, The (2008)'
p3481
S'0864761'
p3482
sS'Hannah Montana: The Movie (2009)'
p3483
S'1114677'
p3484
sS'Reindeerspotting - Pako joulumaasta (2010)'
p3485
S'1584813'
p3486
sS'Ringu 0: B\xc3\xa2sudei (2000)'
p3487
S'0235712'
p3488
sS'Zeitgeist: Moving Forward (2011)'
p3489
S'1781069'
p3490
sS"We're the Millers (2013)"
p3491
S'1723121'
p3492
sS'In America (2002)'
p3493
S'0298845'
p3494
sS'King Corn (2007)'
p3495
S'1112115'
p3496
sS'Hardware (1990)'
p3497
S'0099740'
p3498
sS"Welcome to the Sticks (Bienvenue chez les Ch'tis) (2008)"
p3499
S'1064932'
p3500
sS'Mrs. Henderson Presents (2005)'
p3501
S'0413015'
p3502
sS'Safe Haven (2013)'
p3503
S'1702439'
p3504
sS'Magnificent Obsession (1954)'
p3505
S'0047203'
p3506
sS'Bright Young Things (2003)'
p3507
S'0325123'
p3508
sS'Night Listener, The (2006)'
p3509
S'0448075'
p3510
sS'Crazy Heart (2009)'
p3511
S'1263670'
p3512
sS'Island, The (Ostrov) (2006)'
p3513
S'0851577'
p3514
sS"Band's Visit, The (Bikur Ha-Tizmoret) (2007)"
p3515
S'1032856'
p3516
sS'Rocky VI (1986) '
p3517
S'0091865'
p3518
sS'Ink (2009)'
p3519
S'1071804'
p3520
sS'Innocent Voices (Voces inocentes) (2004)'
p3521
S'0387914'
p3522
sS"Please Don't Eat the Daisies (1960)"
p3523
S'0054188'
p3524
sS'Mambo Kings, The (1992)'
p3525
S'6104150'
p3526
sS'Agony and the Ecstasy, The (1965)'
p3527
S'0058886'
p3528
sS'S. Darko (S. Darko: A Donnie Darko Tale) (2009)'
p3529
S'1231277'
p3530
sS'Samurai Fiction (SF: Episode One) (1998)'
p3531
S'0170544'
p3532
sS'Splitting Heirs (1993)'
p3533
S'0108207'
p3534
sS'Texas Chainsaw Massacre: The Beginning, The (2006)'
p3535
S'0420294'
p3536
sS"Crimson Rivers 2: Angels of the Apocalypse (Rivi\xc3\xa8res pourpres II - Les anges de l'apocalypse, Les) (2004)"
p3537
S'0337103'
p3538
sS'Interrupters, The (2011)'
p3539
S'1319744'
p3540
sS'Salesman (1969)'
p3541
S'0064921'
p3542
sS'Tin Man (2007)'
p3543
S'0910812'
p3544
sS'Manufacturing Consent: Noam Chomsky and the Media (1992)'
p3545
S'0104810'
p3546
sS'Julia (2008)'
p3547
S'0903627'
p3548
sS'Artist, The (2011)'
p3549
S'1655442'
p3550
sS'Felon (2008)'
p3551
S'1117385'
p3552
sS'Disturbia (2007)'
p3553
S'0486822'
p3554
sS'Powder Blue (2009)'
p3555
S'1032819'
p3556
sS'Incendies (2010)'
p3557
S'1255953'
p3558
sS'Young Adam (2003)'
p3559
S'0289635'
p3560
sS'Town, The (2010)'
p3561
S'0840361'
p3562
sS'Namesake, The (2006)'
p3563
S'0433416'
p3564
sS'Music Man, The (1962)'
p3565
S'0056262'
p3566
sS'Pahat pojat (2003)'
p3567
S'0323551'
p3568
sS'Bad Education (La mala educaci\xc3\xb3n) (2004)'
p3569
S'0275491'
p3570
sS'Land of the Lost (2009)'
p3571
S'0457400'
p3572
sS'Hard Candy (2005)'
p3573
S'0424136'
p3574
sS'Memory of a Killer, The (Zaak Alzheimer, De) (2003)'
p3575
S'0374345'
p3576
sS'Orpheus (Orph\xc3\xa9e) (1950)'
p3577
S'0041719'
p3578
sS'Messengers, The (2007)'
p3579
S'5785558'
p3580
sS'Bella (2006)'
p3581
S'0482463'
p3582
sS'Sweeney Todd: The Demon Barber of Fleet Street (2007)'
p3583
S'0408236'
p3584
sS'Watch, The (2012)'
p3585
S'1855199'
p3586
sS'No End in Sight (2007)'
p3587
S'0912593'
p3588
sS'Baxter (1989)'
p3589
S'0094713'
p3590
sS'Four Christmases (2008)'
p3591
S'0369436'
p3592
sS'Country Girl, The (1954)'
p3593
S'0046874'
p3594
sS'Cyrano de Bergerac (1950)'
p3595
S'0042367'
p3596
sS'Jane Eyre (2006)'
p3597
S'0780362'
p3598
sS'Pineapple Express (2008)'
p3599
S'0910936'
p3600
sS'Ant Bully, The (2006)'
p3601
S'0429589'
p3602
sS'Blood: The Last Vampire (2000)'
p3603
S'0275230'
p3604
sS'Beverly Hills Chihuahua (2008)'
p3605
S'1014775'
p3606
sS'Deep, The (1977)'
p3607
S'0075925'
p3608
sS'Jonah Hex (2010)'
p3609
S'1075747'
p3610
sS'Insidious (2010)'
p3611
S'1591095'
p3612
sS'Alien Raiders (2008)'
p3613
S'0996979'
p3614
sS'Partly Cloudy (2009)'
p3615
S'1425244'
p3616
sS'In the Loop (2009)'
p3617
S'1226774'
p3618
sS'Quarantine (2008)'
p3619
S'1082868'
p3620
sS'Castaway (1986)'
p3621
S'0092732'
p3622
sS'Pathology (2008)'
p3623
S'0964539'
p3624
sS'Witless Protection (2008)'
p3625
S'1001562'
p3626
sS'Seeing Other People (2004)'
p3627
S'0362129'
p3628
sS'Internship, The (2013)'
p3629
S'2234155'
p3630
sS'Bratz: The Movie (2007)'
p3631
S'6226812'
p3632
sS'Passenger, The (Professione: reporter) (1975)'
p3633
S'0073580'
p3634
sS'Friends with Money (2006)'
p3635
S'0436331'
p3636
sS'Advise and Consent (1962)'
p3637
S'0055728'
p3638
sS'Saving Face (2004)'
p3639
S'0384504'
p3640
sS'Strangers with Candy (2005)'
p3641
S'0369994'
p3642
sS'Lady Snowblood (Shurayukihime) (1973)'
p3643
S'0158714'
p3644
sS'Star 80 (1983)'
p3645
S'0086355'
p3646
sS'Doubt (2008)'
p3647
S'0918927'
p3648
sS'Dorian Gray (2009)'
p3649
S'1235124'
p3650
sS'Experiment, The (2010)'
p3651
S'1011420'
p3652
sS'Weekend (2011)'
p3653
S'1714210'
p3654
sS'College (1927)'
p3655
S'0017765'
p3656
sS'Fame (2009)'
p3657
S'1016075'
p3658
sS'Without a Paddle (2004)'
p3659
S'0364751'
p3660
sS'Last Station, The (2009)'
p3661
S'0824758'
p3662
sS'To End All Wars (2001)'
p3663
S'0243609'
p3664
sS'Che: Part Two (2008)'
p3665
S'0374569'
p3666
sS'Kanal (1957)'
p3667
S'0050585'
p3668
sS'Brick (2005)'
p3669
S'0393109'
p3670
sS'Daddy Day Camp (2007)'
p3671
S'0462244'
p3672
sS'Maxed Out: Hard Times, Easy Credit and the Era of Predatory Lenders (2006)'
p3673
S'0762117'
p3674
sS'Bright Star (2009)'
p3675
S'0810784'
p3676
sS'Safe House (2012)'
p3677
S'1599348'
p3678
sS'Sucker Punch (2011)'
p3679
S'0978764'
p3680
sS'Panic in Needle Park, The (1971)'
p3681
S'0067549'
p3682
sS'Saw VI (2009)'
p3683
S'1233227'
p3684
sS'G-Force (2009)'
p3685
S'0436339'
p3686
sS'Sky Captain and the World of Tomorrow (2004)'
p3687
S'0346156'
p3688
sS'Irma Vep (1996)'
p3689
S'0116650'
p3690
sS'Kill Bill: Vol. 2 (2004)'
p3691
S'0378194'
p3692
sS'War of the Worlds (2005)'
p3693
S'0407304'
p3694
sS'Life Is Sweet (1991)'
p3695
S'0100024'
p3696
sS'Foot Fist Way, The (2006)'
p3697
S'0492619'
p3698
sS'Nine Lives (2005)'
p3699
S'0420015'
p3700
sS'Godzilla vs. Mechagodzilla II (Gojira VS Mekagojira) (1993)'
p3701
S'0107027'
p3702
sS'Nightmare Alley (1947)'
p3703
S'0039661'
p3704
sS'De-Lovely (2004)'
p3705
S'0352277'
p3706
sS'Citizen Toxie: The Toxic Avenger IV (2000)'
p3707
S'0212879'
p3708
sS'Last Stand, The (2013)'
p3709
S'5692928'
p3710
sS'Definitely, Maybe (2008)'
p3711
S'0832266'
p3712
sS'Woodstock (1970)'
p3713
S'0066580'
p3714
sS'In Bruges (2008)'
p3715
S'0780536'
p3716
sS'Hill, The (1965)'
p3717
S'0059274'
p3718
sS'Monster-in-Law (2005)'
p3719
S'0369735'
p3720
sS'Patriot, The (1998)'
p3721
S'0120786'
p3722
sS'Two for the Money (2005)'
p3723
S'0417217'
p3724
sS'Mr. Nobody (2009)'
p3725
S'0485947'
p3726
sS'River, The (1951)'
p3727
S'0043972'
p3728
sS'BURN-E (2008)'
p3729
S'1334585'
p3730
sS'District 9 (2009)'
p3731
S'1136608'
p3732
sS"Ocean's Thirteen (2007)"
p3733
S'0496806'
p3734
sS'Boxer, The (1997)'
p3735
S'0118760'
p3736
sS'Law of Desire (Ley del deseo, La) (1987)'
p3737
S'0093412'
p3738
sS'Control Room (2004)'
p3739
S'0391024'
p3740
sS'Kite Runner, The (2007)'
p3741
S'0419887'
p3742
sS'Righteous Kill (2008)'
p3743
S'1034331'
p3744
sS'Double, The (2011)'
p3745
S'1270262'
p3746
sS'Snow White: A Tale of Terror (1997)'
p3747
S'0119227'
p3748
sS'Animal Crackers (1930)'
p3749
S'0020640'
p3750
sS'Captain America: The First Avenger (2011)'
p3751
S'0458339'
p3752
sS'Cashback (2006)'
p3753
S'0460740'
p3754
sS'Yours, Mine and Ours (1968)'
p3755
S'0063829'
p3756
sS'Coffee and Cigarettes (2003)'
p3757
S'0379217'
p3758
sS'Sin Nombre (2009)'
p3759
S'1127715'
p3760
sS'Extraordinary Measures (2010)'
p3761
S'1244659'
p3762
sS'World Trade Center (2006)'
p3763
S'0469641'
p3764
sS'Burning Plain, The (2008)'
p3765
S'1068641'
p3766
sS'Resident Evil: Retribution (2012)'
p3767
S'1855325'
p3768
sS'Hobbit: The Desolation of Smaug, The (2013)'
p3769
S'1170358'
p3770
sS'Smurfs, The (2011)'
p3771
S'0472181'
p3772
sS'Musa the Warrior (Musa) (2001)'
p3773
S'0275083'
p3774
sS'Must Love Dogs (2005)'
p3775
S'0417001'
p3776
sS'Loved Ones, The (2009)'
p3777
S'1316536'
p3778
sS'Triangle (2009)'
p3779
S'1187064'
p3780
sS'Wild Child (2008)'
p3781
S'1024255'
p3782
sS'Project X (2012)'
p3783
S'1636826'
p3784
sS'National Treasure: Book of Secrets (2007)'
p3785
S'0465234'
p3786
sS'Inconvenient Truth, An (2006)'
p3787
S'0497116'
p3788
sS'Born into Brothels (2004)'
p3789
S'0388789'
p3790
sS'Miami Vice (2006)'
p3791
S'0430357'
p3792
sS'Grudge, The (2004)'
p3793
S'0391198'
p3794
sS'How the Grinch Stole Christmas! (1966)'
p3795
S'0060345'
p3796
sS'Me and You and Everyone We Know (2005)'
p3797
S'0415978'
p3798
sS'Cooler, The (2003)'
p3799
S'0369179'
p3800
sS'Hotel for Dogs (2009)'
p3801
S'0785006'
p3802
sS'Lake of Fire (2006)'
p3803
S'0841119'
p3804
sS'Then She Found Me (2007)'
p3805
S'0455805'
p3806
sS'New York, I Love You (2009)'
p3807
S'0808399'
p3808
sS"Pirates of the Caribbean: Dead Man's Chest (2006)"
p3809
S'0383574'
p3810
sS'Marriage of Maria Braun, The (Ehe der Maria Braun, Die) (1979)'
p3811
S'0079095'
p3812
sS'Ice Princess (2005)'
p3813
S'0396652'
p3814
sS'21 Jump Street (2012)'
p3815
S'1232829'
p3816
sS'Dr. Jekyll and Mr. Hyde (1941)'
p3817
S'0033553'
p3818
sS'Cracks (2009)'
p3819
S'1183665'
p3820
sS'Alvin and the Chipmunks: Chipwrecked (2011)'
p3821
S'1615918'
p3822
sS'Beau Geste (1939)'
p3823
S'0031088'
p3824
sS'Funny Thing Happened on the Way to the Forum, A (1966)'
p3825
S'0060438'
p3826
sS'Basket Case 2 (1990)'
p3827
S'0099108'
p3828
sS'Seeker: The Dark Is Rising, The (2007)'
p3829
S'0484562'
p3830
sS'Green Hornet, The (2011)'
p3831
S'2133624'
p3832
sS'Land of the Dead (2005)'
p3833
S'0418819'
p3834
sS'21 Up (1977)'
p3835
S'0075610'
p3836
sS'Tiny Furniture (2010)'
p3837
S'1570989'
p3838
sS"Smokin' Aces (2006)"
p3839
S'0475394'
p3840
sS'Butterfield 8 (1960)'
p3841
S'0053622'
p3842
sS'Butterfly Effect, The (2004)'
p3843
S'5685210'
p3844
sS'Stella Dallas (1937)'
p3845
S'0029608'
p3846
sS'Fallen Idol, The (1948)'
p3847
S'0040338'
p3848
sS'Bourne Identity, The (1988)'
p3849
S'5210658'
p3850
sS'Lonely Guy, The (1984)'
p3851
S'0087635'
p3852
sS'Phantom of the Opera, The (1925)'
p3853
S'4756230'
p3854
sS"In Harm's Way (1965)"
p3855
S'0059309'
p3856
sS'In the Shadow of the Moon (2007)'
p3857
S'0925248'
p3858
sS'Things We Lost in the Fire (2007)'
p3859
S'0469623'
p3860
sS'Tinker Tailor Soldier Spy (2011)'
p3861
S'1340800'
p3862
sS'Paranoid Park (2007)'
p3863
S'0842929'
p3864
sS'Southland Tales (2006)'
p3865
S'0405336'
p3866
sS'Rolling Thunder (1977)'
p3867
S'0076637'
p3868
sS'Rebound (2005)'
p3869
S'0376108'
p3870
sS'Flight of the Red Balloon (Voyage du ballon rouge, Le) (2007)'
p3871
S'0826711'
p3872
sS'Deadgirl (2008)'
p3873
S'0896534'
p3874
sS'Eagle, The (2011)'
p3875
S'1034389'
p3876
sS'Big Bounce, The (2004)'
p3877
S'0315824'
p3878
sS'Peter Pan (1960)'
p3879
S'0054176'
p3880
sS'Man on a Ledge (2012)'
p3881
S'1568338'
p3882
sS'Teenage Mutant Ninja Turtles: Turtles Forever (2009)'
p3883
S'1543920'
p3884
sS'Bolt (2008)'
p3885
S'0397892'
p3886
sS'Lights in the Dusk (Laitakaupungin valot) (2006)'
p3887
S'0458242'
p3888
sS'Bridesmaids (2011)'
p3889
S'1478338'
p3890
sS'Wicker Park (2004)'
p3891
S'0324554'
p3892
sS'Fred Claus (2007)'
p3893
S'0486583'
p3894
sS'Hunchback of Notre Dame, The (1923)'
p3895
S'0116583'
p3896
sS'Surviving Christmas (2004)'
p3897
S'0252028'
p3898
sS'28 Weeks Later (2007)'
p3899
S'0463854'
p3900
sS'Road Trip: Beer Pong (2009)'
p3901
S'1319733'
p3902
sS'Support Your Local Sheriff! (1969)'
p3903
S'0065051'
p3904
sS'Girl Who Leapt Through Time, The (Toki o kakeru sh\xc3\xb4jo) (2006)'
p3905
S'0808506'
p3906
sS"Divorce - Italian Style (Divorzio all'italiana) (1961)"
p3907
S'0055913'
p3908
sS'12 Years a Slave (2013)'
p3909
S'2024544'
p3910
sS'Shutter (2008)'
p3911
S'0482599'
p3912
sS'Alex Cross (2012)'
p3913
S'1712170'
p3914
sS'Johnny Got His Gun (1971)'
p3915
S'0067277'
p3916
sS'Ladies in Lavender (2004)'
p3917
S'0377084'
p3918
sS'Princess and the Frog, The (2009)'
p3919
S'0780521'
p3920
sS'Art School Confidential (2006)'
p3921
S'0364955'
p3922
sS'Grand, The (2007)'
p3923
S'1053858'
p3924
sS'Help, The (2011)'
p3925
S'1454029'
p3926
sS'Bridget Jones: The Edge of Reason (2004)'
p3927
S'0317198'
p3928
sS'Kickin It Old Skool (2007)'
p3929
S'0772178'
p3930
sS'Vampyr (1932)'
p3931
S'0023649'
p3932
sS'Source Code (2011)'
p3933
S'0945513'
p3934
sS'Snoopy Come Home (1972)'
p3935
S'0069289'
p3936
sS'Lust for Life (1956)'
p3937
S'0049456'
p3938
sS'God of Cookery (Sik san) (1996)'
p3939
S'0116426'
p3940
sS"Pandora's Box (B\xc3\xbcchse der Pandora, Die) (1929)"
p3941
S'0018737'
p3942
sS'Them (Ils) (2006)'
p3943
S'0465203'
p3944
sS'Pure Country (1992)'
p3945
S'0105191'
p3946
sS'Hoodwinked! (2005)'
p3947
S'0443536'
p3948
sS"Meek's Cutoff (2010)"
p3949
S'1518812'
p3950
sS'Up the Yangtze (2007)'
p3951
S'1114277'
p3952
sS'Cyrus (2010)'
p3953
S'1336617'
p3954
sS'Lost Boys: The Tribe (2008)'
p3955
S'1031254'
p3956
sS'Edukators, The (Die Fetten Jahre sind vorbei) (2004)'
p3957
S'0408777'
p3958
sS'Desert Hearts (1985)'
p3959
S'0089015'
p3960
sS'Comfort of Strangers, The (1990)'
p3961
S'0099292'
p3962
sS'Butterfly Effect: Revelation (2009)'
p3963
S'1234541'
p3964
sS'Fast Food Nation (2006)'
p3965
S'0460792'
p3966
sS'Queen Christina (1933)'
p3967
S'0024481'
p3968
sS'Last Tycoon, The (1976)'
p3969
S'0074777'
p3970
sS'Take Shelter (2011)'
p3971
S'1675192'
p3972
sS'Invictus (2009)'
p3973
S'1057500'
p3974
sS'Samurai Rebellion (J\xc3\xb4i-uchi: Hairy\xc3\xb4 tsuma shimatsu) (1967)'
p3975
S'0061847'
p3976
sS'Company Men, The (2010)'
p3977
S'1172991'
p3978
sS'Noi the Albino (N\xc3\xb3i albin\xc3\xb3i) (2003)'
p3979
S'0351461'
p3980
sS'Footloose (2011)'
p3981
S'1068242'
p3982
sS'Purge, The (2013)'
p3983
S'2184339'
p3984
sS'Starter for 10 (2006)'
p3985
S'0477095'
p3986
sS'Bigger, Stronger, Faster* (2008)'
p3987
S'1151309'
p3988
sS'Accidental Husband, The (2009)'
p3989
S'1546699'
p3990
sS'Evan Almighty (2007)'
p3991
S'0413099'
p3992
sS'Harold & Kumar Escape from Guantanamo Bay (2008)'
p3993
S'0481536'
p3994
sS'Eye, The (2008)'
p3995
S'1059786'
p3996
sS'Tuskegee Airmen, The (1995)'
p3997
S'2175713'
p3998
sS"Since Otar Left (Depuis qu'Otar est parti...) (2003)"
p3999
S'0336264'
p4000
sS'Here Comes Mr. Jordan (1941)'
p4001
S'0033712'
p4002
sS'Visitor, The (2007)'
p4003
S'0857191'
p4004
sS'Rocker, The (2008)'
p4005
S'1031969'
p4006
sS'Work of Director Michel Gondry, The (2003)'
p4007
S'0384700'
p4008
sS'Perfect Getaway, A (2009)'
p4009
S'0971209'
p4010
sS'Jersey Girl (1992)'
p4011
S'0104550'
p4012
sS'Inside Llewyn Davis (2013)'
p4013
S'2042568'
p4014
sS'Reno 911!: Miami (2007)'
p4015
S'0499554'
p4016
sS'Green Zone (2010)'
p4017
S'0947810'
p4018
sS'Awake (2007)'
p4019
S'0211933'
p4020
sS'Birth (2004)'
p4021
S'0337876'
p4022
sS'Wild Hogs (2007)'
p4023
S'0486946'
p4024
sS'Aileen: Life and Death of a Serial Killer (2003)'
p4025
S'0364930'
p4026
sS'Final Destination 5 (2011)'
p4027
S'1622979'
p4028
sS'Jesus Christ Superstar (2000)'
p4029
S'0275434'
p4030
sS'Passion of the Christ, The (2004)'
p4031
S'0335345'
p4032
sS'I Love You Phillip Morris (2009)'
p4033
S'1045772'
p4034
sS'Last Kiss, The (2006)'
p4035
S'0434139'
p4036
sS'Welcome to the Rileys (2010)'
p4037
S'1183923'
p4038
sS'Cobra Verde (1987)'
p4039
S'0094888'
p4040
sS'Life in a Day (2011)'
p4041
S'1687247'
p4042
sS'Our Idiot Brother (2011)'
p4043
S'1637706'
p4044
sS'Alvin and the Chipmunks: The Squeakquel (2009)'
p4045
S'1231580'
p4046
sS'Happy-Go-Lucky (2008)'
p4047
S'1045670'
p4048
sS'Knight and Day (2010)'
p4049
S'1013743'
p4050
sS'Evil (Ondskan) (2003)'
p4051
S'0346293'
p4052
sS'Warriors, The (1979)'
p4053
S'0080120'
p4054
sS'Producers, The (2005)'
p4055
S'0395251'
p4056
sS'Marwencol (2010)'
p4057
S'1391092'
p4058
sS'Welcome to Mooseport (2004)'
p4059
S'0361925'
p4060
sS"Emperor's New Groove 2: Kronk's New Groove, The (2005)"
p4061
S'0401398'
p4062
sS'Feast of Love (2007)'
p4063
S'0800027'
p4064
sS'Incredible Burt Wonderstone, The (2013)'
p4065
S'0790628'
p4066
sS'Touch of Pink (2004)'
p4067
S'0374277'
p4068
sS'Night at the Opera, A (1935)'
p4069
S'0026778'
p4070
sS'Stander (2003)'
p4071
S'0326208'
p4072
sS'Lonely Hearts (2006)'
p4073
S'0441774'
p4074
sS'Devil and Daniel Johnston, The (2005)'
p4075
S'0436231'
p4076
sS'Final Destination 3 (2006)'
p4077
S'0414982'
p4078
sS'Samurai II: Duel at Ichijoji Temple (Zoku Miyamoto Musashi: Ichij\xc3\xb4ji no kett\xc3\xb4) (1955)'
p4079
S'0048579'
p4080
sS'Cloudy with a Chance of Meatballs (2009)'
p4081
S'0844471'
p4082
sS'Vanishing Point (1971)'
p4083
S'0067927'
p4084
sS'Police Story (Ging chaat goo si) (1985)'
p4085
S'0089374'
p4086
sS'Mr. Blandings Builds His Dream House (1948)'
p4087
S'0040613'
p4088
sS"Trick 'r Treat (2007)"
p4089
S'0862856'
p4090
sS'V/H/S (2012)'
p4091
S'2105044'
p4092
sS'Bon Cop, Bad Cop (2006)'
p4093
S'4738174'
p4094
sS'Mighty Heart, A (2007)'
p4095
S'0829459'
p4096
sS'Survival of the Dead (2009)'
p4097
S'1134854'
p4098
sS'Powwow Highway (1989)'
p4099
S'0098112'
p4100
sS'Edmond (2005)'
p4101
S'0443496'
p4102
sS'Repo Men (2010)'
p4103
S'1053424'
p4104
sS'B\xc3\xaate humaine, La (1938)'
p4105
S'0029957'
p4106
sS'Vow, The (2012)'
p4107
S'1606389'
p4108
sS'Spanglish (2004)'
p4109
S'0371246'
p4110
sS'Skeleton Key, The (2005)'
p4111
S'0397101'
p4112
sS'Street Fighter: The Legend of Chun-Li (2009)'
p4113
S'0891592'
p4114
sS'Ju Dou (1990)'
p4115
S'0099902'
p4116
sS'Midnight Meat Train, The (2008)'
p4117
S'0805570'
p4118
sS'Hands Off the Loot (Touchez pas au grisbi) (1954)'
p4119
S'0046451'
p4120
sS'5 Centimeters per Second (By\xc3\xb4soku 5 senchim\xc3\xaatoru) (2007)'
p4121
S'0983213'
p4122
sS'In the Electric Mist (2009)'
p4123
S'0910905'
p4124
sS"Razor's Edge, The (1946)"
p4125
S'5895120'
p4126
sS'Scott Pilgrim vs. the World (2010)'
p4127
S'0446029'
p4128
sS'Closely Watched Trains (Ostre sledovan\xc3\xa9 vlaky) (1966)'
p4129
S'0060802'
p4130
sS'G.I. Joe: Retaliation (2013)'
p4131
S'1583421'
p4132
sS'Avatar (2009)'
p4133
S'0499549'
p4134
sS'Lesbian Vampire Killers (2009)'
p4135
S'1020885'
p4136
sS'Remember Me (2010)'
p4137
S'1403981'
p4138
sS'Brain Donors (1992)'
p4139
S'0103872'
p4140
sS'Damned United, The (2009)'
p4141
S'1226271'
p4142
sS'Ip Man (2008)'
p4143
S'1220719'
p4144
sS'Pretty Baby (1978)'
p4145
S'0078111'
p4146
sS'Final Fantasy VII: Advent Children (2004)'
p4147
S'0385700'
p4148
sS'Final Destination, The (Final Destination 4) (Final Destination in 3-D, The) (2009)'
p4149
S'1144884'
p4150
sS'Ruby & Quentin (Tais-toi!) (2003)'
p4151
S'0310203'
p4152
sS'Jack Goes Boating (2010)'
p4153
S'1278379'
p4154
sS'Palindromes (2004)'
p4155
S'0362004'
p4156
sS'Stranger, The (1946)'
p4157
S'0038991'
p4158
sS'In the Realms of the Unreal (2004)'
p4159
S'0390123'
p4160
sS'Stoker (2013)'
p4161
S'1682180'
p4162
sS'Boys in the Band, The (1970)'
p4163
S'0065488'
p4164
sS'40-Year-Old Virgin, The (2005)'
p4165
S'4197858'
p4166
sS'Twelve and Holding (2005)'
p4167
S'0417385'
p4168
sS'White House Down (2013)'
p4169
S'2334879'
p4170
sS'In Good Company (2004)'
p4171
S'0385267'
p4172
sS'Goodbye Solo (2008)'
p4173
S'1095442'
p4174
sS'Three Stooges in Orbit, The (1962)'
p4175
S'0056580'
p4176
sS'Azumi (2003)'
p4177
S'0384819'
p4178
sS'Rose Tattoo, The (1955)'
p4179
S'0048563'
p4180
sS"You Don't Know Jack (2010)"
p4181
S'1132623'
p4182
sS'Ginger Snaps: Unleashed (2004)'
p4183
S'0353489'
p4184
sS'Too Big to Fail (2011)'
p4185
S'1742683'
p4186
sS'Dutch (1991)'
p4187
S'0101786'
p4188
sS'Agent Cody Banks 2: Destination London (2004)'
p4189
S'0358349'
p4190
sS'Youth in Revolt (2009)'
p4191
S'0403702'
p4192
sS"Devil's Double, The (2011)"
p4193
S'1270262'
p4194
sS'Harry Potter and the Order of the Phoenix (2007)'
p4195
S'0373889'
p4196
sS'Blades of Glory (2007)'
p4197
S'0445934'
p4198
sS'Frozen (2013)'
p4199
S'2294629'
p4200
sS'Abraham Lincoln: Vampire Hunter (2012)'
p4201
S'1611224'
p4202
sS'Pink Panther, The (2006)'
p4203
S'1454908'
p4204
sS"Once Upon a Time in Anatolia (Bir zamanlar Anadolu'da) (2011)"
p4205
S'1827487'
p4206
sS'Win a Date with Tad Hamilton! (2004)'
p4207
S'0335559'
p4208
sS'Tremors II: Aftershocks (1996)'
p4209
S'0114720'
p4210
sS'Shotgun Stories (2007)'
p4211
S'0952682'
p4212
sS'Smart People (2008)'
p4213
S'0858479'
p4214
sS'Antichrist (2009)'
p4215
S'0870984'
p4216
sS'Cannibal Holocaust (1980)'
p4217
S'0078935'
p4218
sS'Daria: Is it College Yet? (2002)'
p4219
S'0285627'
p4220
sS'Dreamer: Inspired by a True Story (2005)'
p4221
S'0418647'
p4222
sS'Dr. Jekyll and Mr. Hyde (1931)'
p4223
S'0022835'
p4224
sS'Employee of the Month (2006)'
p4225
S'0424993'
p4226
sS'Nights in Rodanthe (2008)'
p4227
S'0956038'
p4228
sS'Mummy: Tomb of the Dragon Emperor, The (2008)'
p4229
S'0859163'
p4230
sS'Juice (1992)'
p4231
S'0104573'
p4232
sS'Libertine, The (2004)'
p4233
S'0375920'
p4234
sS'Stay (2005)'
p4235
S'0371257'
p4236
sS'Tiger and the Snow, The (La tigre e la neve) (2005)'
p4237
S'0419198'
p4238
sS'Gone (2012)'
p4239
S'1838544'
p4240
sS'Confessions of a Shopaholic (2009)'
p4241
S'1093908'
p4242
sS'Julia (1977)'
p4243
S'0076245'
p4244
sS'Asterix & Obelix: Mission Cleopatra (Ast\xc3\xa9rix & Ob\xc3\xa9lix: Mission Cl\xc3\xa9op\xc3\xa2tre) (2002)'
p4245
S'0250223'
p4246
sS'Fuck (2005)'
p4247
S'0486585'
p4248
sS'David Cross: Bigger & Blackerer (2010)'
p4249
S'1646887'
p4250
sS'Machete (2010)'
p4251
S'0985694'
p4252
sS'Meet Bill (2007)'
p4253
S'0790623'
p4254
sS'Limitless (2011)'
p4255
S'1219289'
p4256
sS'Hellsinki (R\xc3\xb6\xc3\xb6peri) (2009)'
p4257
S'1227536'
p4258
sS'Ali G Indahouse (2002)'
p4259
S'0284837'
p4260
sS'Wish You Were Here (1987)'
p4261
S'0094331'
p4262
sS'Cheaper by the Dozen 2 (2005)'
p4263
S'0452598'
p4264
sS'Arizona Dream (1993)'
p4265
S'0106307'
p4266
sS'Firewall (2006)'
p4267
S'0408345'
p4268
sS'Dark Star (1974)'
p4269
S'0069945'
p4270
sS'Mother, Jugs & Speed (1976)'
p4271
S'0074923'
p4272
sS'After the Thin Man (1936)'
p4273
S'0027260'
p4274
sS'Super Fly (Superfly) (1972)'
p4275
S'0069332'
p4276
sS'Fantastic Four: Rise of the Silver Surfer (2007)'
p4277
S'1027810'
p4278
sS'Charlie Brown Christmas, A (1965)'
p4279
S'0059026'
p4280
sS'Napoleon Dynamite (2004)'
p4281
S'0374900'
p4282
sS'Little Miss Marker (1934)'
p4283
S'0025410'
p4284
sS'Alexander (2004)'
p4285
S'0346491'
p4286
sS'Human Resources (Ressources humaines) (1999)'
p4287
S'0220726'
p4288
sS'Gigantic (2008)'
p4289
S'1176251'
p4290
sS"Pirates of the Caribbean: At World's End (2007)"
p4291
S'0449088'
p4292
sS'Gamers, The: Dorkness Rising (2008)'
p4293
S'0447166'
p4294
sS'Forgotten, The (2004)'
p4295
S'0356618'
p4296
sS'Pride (2007)'
p4297
S'0475355'
p4298
sS'Stardust (2007)'
p4299
S'0486655'
p4300
sS'Man on Wire (2008)'
p4301
S'1155592'
p4302
sS'xXx: State of the Union (2005)'
p4303
S'1576863'
p4304
sS'Throne of Blood (Kumonosu j\xc3\xb4) (1957)'
p4305
S'0050613'
p4306
sS'Battle of the Bulge (1965)'
p4307
S'0058947'
p4308
sS'Breaking and Entering (2006)'
p4309
S'0443456'
p4310
sS'Witchboard (1986)'
p4311
S'0090327'
p4312
sS'Chase, The (1994)'
p4313
S'0109402'
p4314
sS'Dinner with Friends (2001)'
p4315
S'0271461'
p4316
sS'Good, the Bad, the Weird, The (Joheunnom nabbeunnom isanghannom) (2008)'
p4317
S'0901487'
p4318
sS'Looking for Comedy in the Muslim World (2005)'
p4319
S'0433116'
p4320
sS'Argo (2012)'
p4321
S'1024648'
p4322
sS'Bobby Jones, Stroke of Genius (2004)'
p4323
S'0375104'
p4324
sS'Place Beyond the Pines, The (2012)'
p4325
S'1817273'
p4326
sS'Alamo, The (2004)'
p4327
S'5138732'
p4328
sS"March of the Penguins (Marche de l'empereur, La) (2005)"
p4329
S'0428803'
p4330
sS'Mangler, The (1995)'
p4331
S'0113762'
p4332
sS'Spies Like Us (1985)'
p4333
S'0090056'
p4334
sS'High Anxiety (1977)'
p4335
S'0076141'
p4336
sS'Magic Flute, The (Trollfl\xc3\xb6jten) (1975)'
p4337
S'0073822'
p4338
sS'Fantastic Four (2005)'
p4339
S'0120667'
p4340
sS'Jane Austen Book Club, The (2007)'
p4341
S'0866437'
p4342
sS'Colour of Magic, The (2008)'
p4343
S'1079959'
p4344
sS'Rum Diary, The (2011)'
p4345
S'0376136'
p4346
sS'Man in the Gray Flannel Suit, The (1956)'
p4347
S'0049474'
p4348
sS'Tristan & Isolde (2006)'
p4349
S'0375154'
p4350
sS'Perfect Sense (2011)'
p4351
S'1439572'
p4352
sS'Apocalypto (2006)'
p4353
S'0472043'
p4354
sS"Slammin' Salmon, The (2009)"
p4355
S'1135525'
p4356
sS'Slumdog Millionaire (2008)'
p4357
S'1010048'
p4358
sS'He Was a Quiet Man (2007)'
p4359
S'0760311'
p4360
sS'California Split (1974)'
p4361
S'0071269'
p4362
sS'Rize (2005)'
p4363
S'0436724'
p4364
sS'Easy A (2010)'
p4365
S'1282140'
p4366
sS'Big Fan (2009)'
p4367
S'1228953'
p4368
sS'Flame and Citron (Flammen & Citronen) (2008)'
p4369
S'0920458'
p4370
sS"That's Entertainment (1974)"
p4371
S'0072272'
p4372
sS'After Hours (1985)'
p4373
S'0088680'
p4374
sS'Before Midnight (2013)'
p4375
S'2209418'
p4376
sS'Wit (2001)'
p4377
S'0243664'
p4378
sS'Imagine Me & You (2005)'
p4379
S'0421994'
p4380
sS'Catch a Fire (2006)'
p4381
S'0437232'
p4382
sS'Lars and the Real Girl (2007)'
p4383
S'0805564'
p4384
sS'Swing Vote (2008)'
p4385
S'1027862'
p4386
sS'Capitalism: A Love Story (2009)'
p4387
S'1232207'
p4388
sS'Save the Green Planet! (Jigureul jikyeora!) (2003)'
p4389
S'0354668'
p4390
sS"My Best Friend's Girl (2008)"
p4391
S'1046163'
p4392
sS'Grizzly Man (2005)'
p4393
S'0427312'
p4394
sS'Sitter, The (2011)'
p4395
S'1366344'
p4396
sS'Black Snake Moan (2006)'
p4397
S'0462200'
p4398
sS'Fire in the Sky (1993)'
p4399
S'0106912'
p4400
sS'Casanova (2005)'
p4401
S'0402894'
p4402
sS'Notes on a Scandal (2006)'
p4403
S'0465551'
p4404
sS'Kung Fu Panda (2008)'
p4405
S'0441773'
p4406
sS'Where the Boys Are (1960)'
p4407
S'0054469'
p4408
sS'Mitchell (1975)'
p4409
S'0073396'
p4410
sS'Lymelife (2008)'
p4411
S'0363780'
p4412
sS'By the Light of the Silvery Moon (1953)'
p4413
S'0045586'
p4414
sS'Tideland (2005)'
p4415
S'0410764'
p4416
sS'Be Cool (2005)'
p4417
S'0377471'
p4418
sS'How to Succeed in Business Without Really Trying (1967)'
p4419
S'0061791'
p4420
sS'Cat Returns, The (Neko no ongaeshi) (2002)'
p4421
S'0347618'
p4422
sS'Secret Life of Walter Mitty, The (1947)'
p4423
S'0359950'
p4424
sS'Oklahoma! (1955)'
p4425
S'0048445'
p4426
sS'September Issue, The (2009)'
p4427
S'3182366'
p4428
sS'Nowhere Boy (2009)'
p4429
S'1266029'
p4430
sS'Sound of Thunder, A (2005)'
p4431
S'0318081'
p4432
sS'Uzumaki (2000)'
p4433
S'0244870'
p4434
sS'Curse of the Golden Flower (Man cheng jin dai huang jin jia) (2006)'
p4435
S'0473444'
p4436
sS'Naked Kiss, The (1964)'
p4437
S'0058390'
p4438
sS'Vera Drake (2004)'
p4439
S'0383694'
p4440
sS'2 Days in New York (2012)'
p4441
S'1602472'
p4442
sS'Jalla! Jalla! (2000)'
p4443
S'0269389'
p4444
sS"Kiki's Delivery Service (Majo no takky\xc3\xbbbin) (1989)"
p4445
S'0097814'
p4446
sS'Unknown Soldier, The (Tuntematon sotilas) (1955)'
p4447
S'0048752'
p4448
sS'Battlestar Galactica (2003)'
p4449
S'0314979'
p4450
sS'Santa Clause 3: The Escape Clause, The (2006)'
p4451
S'0452681'
p4452
sS'To Rome with Love (2012)'
p4453
S'1859650'
p4454
sS'Envy (2004)'
p4455
S'0326856'
p4456
sS'How to Steal a Million (1966)'
p4457
S'0060522'
p4458
sS'Daybreakers (2010)'
p4459
S'2131963'
p4460
sS"Who's That Knocking at My Door? (1967)"
p4461
S'0063803'
p4462
sS'Fired Up (2009)'
p4463
S'1596186'
p4464
sS'Kiss of Death (1947)'
p4465
S'0039536'
p4466
sS'Prince of Darkness (1987)'
p4467
S'0093777'
p4468
sS'Soul Plane (2004)'
p4469
S'0367085'
p4470
sS'Inbetweeners Movie, The (2011)'
p4471
S'1716772'
p4472
sS'Run (1991)'
p4473
S'0102818'
p4474
sS'Heart in Winter, A (Un coeur en hiver) (1992)'
p4475
S'0105682'
p4476
sS"Breakin' All the Rules (2004)"
p4477
S'0349169'
p4478
sS'Paranormal Activity (2009)'
p4479
S'5275132'
p4480
sS'Heima (2007)'
p4481
S'1094594'
p4482
sS'Hills Have Eyes II, The (2007)'
p4483
S'0800069'
p4484
sS'Dark Water (2005)'
p4485
S'0382628'
p4486
sS'Stand Up Guys (2012)'
p4487
S'1389096'
p4488
sS'Boogeyman (2005)'
p4489
S'0357507'
p4490
sS'Cop and \xc2\xbd (1993)'
p4491
S'0106079'
p4492
sS'No Direction Home: Bob Dylan (2005)'
p4493
S'0367555'
p4494
sS'Bourne Ultimatum, The (2007)'
p4495
S'1118501'
p4496
sS'Taboo (Gohatto) (1999)'
p4497
S'0213682'
p4498
sS'Candy (2006)'
p4499
S'0424880'
p4500
sS'Freshman, The (1925)'
p4501
S'0015841'
p4502
sS'Future, The (2011)'
p4503
S'5124786'
p4504
sS'God Bless America (2011)'
p4505
S'1912398'
p4506
sS'Sleuth (2007)'
p4507
S'0857265'
p4508
sS"I Am Love (Io sono l'amore) (2009)"
p4509
S'1226236'
p4510
sS'Dead Snow (D\xc3\xb8d sn\xc3\xb8) (2009)'
p4511
S'1278340'
p4512
sS'Burke and Hare (2010)'
p4513
S'1320239'
p4514
sS'Woodsman, The (2004)'
p4515
S'0361127'
p4516
sS'Fantastic Mr. Fox (2009)'
p4517
S'0432283'
p4518
sS'Brideshead Revisited (2008)'
p4519
S'0412536'
p4520
sS'Harry Brown (2009)'
p4521
S'1289406'
p4522
sS'Leaves of Grass (2009)'
p4523
S'1151359'
p4524
sS'Wages of Fear, The (Salaire de la peur, Le) (1953)'
p4525
S'0046268'
p4526
sS'Cinderella Man (2005)'
p4527
S'0352248'
p4528
sS'Call Northside 777 (1948)'
p4529
S'0040202'
p4530
sS"Blackadder's Christmas Carol (1988)"
p4531
S'0094754'
p4532
sS'Electric Dreams (1984)'
p4533
S'0087197'
p4534
sS'Prisoners (2013)'
p4535
S'1392214'
p4536
sS'Serbian Film, A (Srpski film) (2010)'
p4537
S'1273235'
p4538
sS'Ong-Bak: The Thai Warrior (Ong Bak) (2003)'
p4539
S'0368909'
p4540
sS'Informant!, The (2009)'
p4541
S'1130080'
p4542
sS'Elite Squad (Tropa de Elite) (2007)'
p4543
S'0861739'
p4544
sS'Gravity (2013)'
p4545
S'1454468'
p4546
sS"Tyler Perry's Madea's Family Reunion (2006)"
p4547
S'0770674'
p4548
sS'Kiss Kiss Bang Bang (2005)'
p4549
S'0373469'
p4550
sS'Dam Busters, The (1955)'
p4551
S'1228979'
p4552
sS'Akeelah and the Bee (2006)'
p4553
S'0437800'
p4554
sS'Tenacious D in The Pick of Destiny (2006)'
p4555
S'0365830'
p4556
sS'Broken Wings (Knafayim Shvurot) (2002)'
p4557
S'0317842'
p4558
sS'Last Vegas (2013)'
p4559
S'1204975'
p4560
sS'Rumor Has It... (2005)'
p4561
S'0398375'
p4562
sS'Nostalghia (1983)'
p4563
S'0086022'
p4564
sS'Grindhouse (2007)'
p4565
S'0462322'
p4566
sS'Desperate Living (1977)'
p4567
S'0075936'
p4568
sS'Joan Rivers: A Piece of Work (2010)'
p4569
S'1568150'
p4570
sS'CJ7 (Cheung Gong 7 hou) (2008)'
p4571
S'0940709'
p4572
sS'Guerrilla: The Taking of Patty Hearst (2004)'
p4573
S'0884842'
p4574
sS'Futurama: The Beast with a Billion Backs (2008)'
p4575
S'1054485'
p4576
sS"Barney's Version (2010)"
p4577
S'1423894'
p4578
sS'Sinister (2012)'
p4579
S'1922777'
p4580
sS'D\xc3\xa9j\xc3\xa0 Vu (2006)'
p4581
S'5649074'
p4582
sS'Kirikou and the Sorceress (Kirikou et la sorci\xc3\xa8re) (1998)'
p4583
S'0181627'
p4584
sS'Norwegian Wood (Noruwei no mori) (2010)'
p4585
S'1270842'
p4586
sS'Parallax View, The (1974)'
p4587
S'0071970'
p4588
sS'Man Who Copied, The (Homem Que Copiava, O) (2003)'
p4589
S'0367859'
p4590
sS'Echelon Conspiracy (2009)'
p4591
S'1124039'
p4592
sS'Pulse (Kairo) (2001)'
p4593
S'0286751'
p4594
sS'Cold Mountain (2003)'
p4595
S'0159365'
p4596
sS'5x2 (2004)'
p4597
S'0354356'
p4598
sS'Stanley Kubrick: A Life in Pictures (2001)'
p4599
S'0278736'
p4600
sS'Tournament, The (2009)'
p4601
S'1071542'
p4602
sS'Vision Quest (1985)'
p4603
S'0090270'
p4604
sS'Aquamarine (2006)'
p4605
S'0429591'
p4606
sS'Kung Fu Panda 2 (2011)'
p4607
S'1302011'
p4608
sS'Joan of Arc (1948)'
p4609
S'0040491'
p4610
sS'Monkey Business (1931)'
p4611
S'0022158'
p4612
sS'Butterfly Effect 2, The (2006)'
p4613
S'0457297'
p4614
sS'Hunting of the President, The (2004)'
p4615
S'0391225'
p4616
sS'Are We There Yet? (2005)'
p4617
S'0368578'
p4618
sS'Sarah Silverman: Jesus Is Magic (2005)'
p4619
S'0422528'
p4620
sS'Tromeo and Juliet (1996)'
p4621
S'0114733'
p4622
sS'Reckoning, The (2004)'
p4623
S'2593138'
p4624
sS'Becoming Jane (2007)'
p4625
S'0416508'
p4626
sS'Thief, The (Vor) (1997)'
p4627
S'0124207'
p4628
sS'Waltz with Bashir (Vals im Bashir) (2008)'
p4629
S'1185616'
p4630
sS'Weather Man, The (2005)'
p4631
S'0384680'
p4632
sS'New York Doll (2005)'
p4633
S'0436629'
p4634
sS'Night and the City (1950)'
p4635
S'0042788'
p4636
sS'Transformers: Dark of the Moon (2011)'
p4637
S'1399103'
p4638
sS'Indie Game: The Movie (2012)'
p4639
S'1942884'
p4640
sS'Toy Story 3 (2010)'
p4641
S'0435761'
p4642
sS'Going in Style (1979)'
p4643
S'0079219'
p4644
sS'Onibaba (1964)'
p4645
S'0058430'
p4646
sS'Carriers (2009)'
p4647
S'0806203'
p4648
sS'Collector, The (2009)'
p4649
S'0844479'
p4650
sS'Goal! The Dream Begins (Goal!) (2005)'
p4651
S'0380389'
p4652
sS'Shut Up & Sing (2006)'
p4653
S'0811136'
p4654
sS'Schultze Gets the Blues (2003)'
p4655
S'0388395'
p4656
sS'Delta Farce (2007)'
p4657
S'0800003'
p4658
sS'Br\xc3\xbcno (Bruno) (2009)'
p4659
S'0889583'
p4660
sS'Lords of Dogtown (2005)'
p4661
S'0355702'
p4662
sS'City Island (2009)'
p4663
S'1174730'
p4664
sS'No Reservations (2007)'
p4665
S'0481141'
p4666
sS'Venus (2006)'
p4667
S'0489327'
p4668
sS'Zombieland (2009)'
p4669
S'1156398'
p4670
sS'Jazz Singer, The (1927)'
p4671
S'0018037'
p4672
sS'Watchmen: Tales of the Black Freighter (2009)'
p4673
S'1295071'
p4674
sS'Road to Bali (1952)'
p4675
S'0045094'
p4676
sS'Warrior (2011)'
p4677
S'1291584'
p4678
sS'Alice (2009)'
p4679
S'1461312'
p4680
sS'Stargate: The Ark of Truth (2008)'
p4681
S'0942903'
p4682
sS'Lonesome Dove (1989)'
p4683
S'0096639'
p4684
sS'Cowboys & Aliens (2011)'
p4685
S'0409847'
p4686
sS'House of the Devil, The (2009)'
p4687
S'1172994'
p4688
sS'TV Set, The (2006)'
p4689
S'0473709'
p4690
sS'Raise Your Voice (2004)'
p4691
S'0361696'
p4692
sS'Find Me Guilty (2006)'
p4693
S'0419749'
p4694
sS'Waiting... (2005)'
p4695
S'0348333'
p4696
sS'Hobbit, The (1977)'
p4697
S'0077687'
p4698
sS'Requiem (2006)'
p4699
S'0454931'
p4700
sS'Pierrot le fou (1965)'
p4701
S'0059592'
p4702
sS'Hairspray (2007)'
p4703
S'0427327'
p4704
sS'Johnny Belinda (1948)'
p4705
S'0040495'
p4706
sS"OSS 117: Cairo, Nest of Spies (OSS 117: Le Caire nid d'espions) (2006)"
p4707
S'0464913'
p4708
sS'Death at a Funeral (2007)'
p4709
S'0795368'
p4710
sS'Hancock (2008)'
p4711
S'0448157'
p4712
sS"Don't Look Back (1967)"
p4713
S'1075113'
p4714
sS'Broken Flowers (2005)'
p4715
S'0412019'
p4716
sS'Drunken Angel (Yoidore tenshi) (1948)'
p4717
S'0040979'
p4718
sS"Surf's Up (2007)"
p4719
S'0423294'
p4720
sS'Paper Heart (2009)'
p4721
S'1331064'
p4722
sS'Clearing, The (2004)'
p4723
S'0331952'
p4724
sS'Is Anybody There? (2008)'
p4725
S'1130088'
p4726
sS'Pretty Persuasion (2005)'
p4727
S'0381505'
p4728
sS'Pure Formality, A (Pura formalit\xc3\xa0, Una) (1994)'
p4729
S'0110917'
p4730
sS"Alice's Restaurant (1969)"
p4731
S'0064002'
p4732
sS'Killshot (2008)'
p4733
S'0443559'
p4734
sS'When Will I Be Loved (2004)'
p4735
S'0396271'
p4736
sS'Wendy and Lucy (2008)'
p4737
S'1152850'
p4738
sS"Time Traveler's Wife, The (2009)"
p4739
S'0452694'
p4740
sS'Choke (2008)'
p4741
S'1024715'
p4742
sS'Day of the Doctor, The (2013)'
p4743
S'5342236'
p4744
sS'Octopussy (1983)'
p4745
S'0086034'
p4746
sS"I'll Sleep When I'm Dead (2003)"
p4747
S'0319531'
p4748
sS'Kitchen Stories (Salmer fra kj\xc3\xb8kkenet) (2003)'
p4749
S'0323872'
p4750
sS'Black Mirror (2011)'
p4751
S'2085059'
p4752
sS"Sorcerer's Apprentice, The (2010)"
p4753
S'0963966'
p4754
sS'Shine a Light (2008)'
p4755
S'0893382'
p4756
sS'Prize Winner of Defiance Ohio, The (2005)'
p4757
S'0406158'
p4758
sS'17 Again (2009)'
p4759
S'0974661'
p4760
sS'Random Harvest (1942)'
p4761
S'0035238'
p4762
sS'All Good Things (2010)'
p4763
S'1175709'
p4764
sS'Earth (2007)'
p4765
S'0393597'
p4766
sS'Prime (2005)'
p4767
S'0387514'
p4768
sS'Four Lions (2010)'
p4769
S'1341167'
p4770
sS'Drillbit Taylor (2008)'
p4771
S'0817538'
p4772
sS'Live Free or Die Hard (2007)'
p4773
S'0337978'
p4774
sS'Wind That Shakes the Barley, The (2006)'
p4775
S'0460989'
p4776
sS'Intimate Strangers (Confidences trop intimes) (2004)'
p4777
S'0363532'
p4778
sS'Great Gatsby, The (1974)'
p4779
S'4368606'
p4780
sS'Poetry (Shi) (2010)'
p4781
S'1287878'
p4782
sS'Mr. & Mrs. Smith (2005)'
p4783
S'0356910'
p4784
sS"Let's Go to Prison (2006)"
p4785
S'0454987'
p4786
sS'Steel Dawn (1987)'
p4787
S'0094033'
p4788
sS'Case 39 (2009)'
p4789
S'0795351'
p4790
sS'Sex and the City 2 (2010)'
p4791
S'1261945'
p4792
sS'Samoura\xc3\xaf, Le (Godson, The) (1967)'
p4793
S'0062229'
p4794
sS'Bunny Lake Is Missing (1965)'
p4795
S'0058997'
p4796
sS'Rabbit Without Ears (Keinohrhasen) (2007)'
p4797
S'0960790'
p4798
sS'Quigley Down Under (1990)'
p4799
S'0102744'
p4800
sS'Last Holiday (2006)'
p4801
S'0408985'
p4802
sS'Sea Inside, The (Mar adentro) (2004)'
p4803
S'0369702'
p4804
sS'Beautiful Boxer (2003)'
p4805
S'0401248'
p4806
sS'Dukes of Hazzard, The (2005)'
p4807
S'0800328'
p4808
sS'Bring It On Again (2004)'
p4809
S'0334965'
p4810
sS'Happy Endings (2005)'
p4811
S'0361693'
p4812
sS'Perks of Being a Wallflower, The (2012)'
p4813
S'1659337'
p4814
sS'On Deadly Ground (1994)'
p4815
S'0110725'
p4816
sS'Underworld: Awakening (2012)'
p4817
S'1496025'
p4818
sS'Reconstruction (2003)'
p4819
S'0366943'
p4820
sS'Kings of Summer, The (2013)'
p4821
S'3967448'
p4822
sS'White Ribbon, The (Das wei\xc3\x9fe Band) (2009)'
p4823
S'1149362'
p4824
sS"World's Greatest Dad (2009)"
p4825
S'1262981'
p4826
sS'Junior Bonner (1972)'
p4827
S'0068786'
p4828
sS'Brown Bunny, The (2003)'
p4829
S'0330099'
p4830
sS'Georgia Rule (2007)'
p4831
S'0791304'
p4832
sS'Fourth Kind, The (2009)'
p4833
S'1220198'
p4834
sS'Off the Map (2003)'
p4835
S'0332285'
p4836
sS'Most Dangerous Game, The (1932)'
p4837
S'0023238'
p4838
sS'Walk the Line (2005)'
p4839
S'0358273'
p4840
sS'Hotel Rwanda (2004)'
p4841
S'0395169'
p4842
sS'Beaver, The (2011)'
p4843
S'1321860'
p4844
sS'Batman: Under the Red Hood (2010)'
p4845
S'1569923'
p4846
sS'Colombiana (2011)'
p4847
S'1657507'
p4848
sS'Late Show, The (1977)'
p4849
S'0076301'
p4850
sS'Paycheck (2003)'
p4851
S'0338337'
p4852
sS'Flight of the Phoenix (2004)'
p4853
S'0377062'
p4854
sS'Black Death (2010)'
p4855
S'1181791'
p4856
sS'Married Life (2007)'
p4857
S'0804505'
p4858
sS'Collateral (2004)'
p4859
S'0369339'
p4860
sS"Tyler Perry's Diary of a Mad Black Woman (2005)"
p4861
S'0422093'
p4862
sS'Ninja Assassin (2009)'
p4863
S'1186367'
p4864
sS'Louis C.K.: Live at the Beacon Theater (2011)'
p4865
S'2112999'
p4866
sS'Cedar Rapids (2011)'
p4867
S'1477837'
p4868
sS'Appaloosa (2008)'
p4869
S'0800308'
p4870
sS"Michael Jackson's This Is It (2009)"
p4871
S'1592299'
p4872
sS'Diary of a Wimpy Kid (2010)'
p4873
S'1196141'
p4874
sS'Perfect Score, The (2004)'
p4875
S'0314498'
p4876
sS'Killing of a Chinese Bookie, The (1976)'
p4877
S'0074749'
p4878
sS'Diary of the Dead (2007)'
p4879
S'0848557'
p4880
sS'Certified Copy (Copie conforme) (2010)'
p4881
S'1020773'
p4882
sS'Milk (2008)'
p4883
S'1013753'
p4884
sS'Greenberg (2010)'
p4885
S'1234654'
p4886
sS'Frozen River (2008)'
p4887
S'0978759'
p4888
sS'Osterman Weekend, The (1983)'
p4889
S'0086058'
p4890
sS'Hot Tub Time Machine (2010)'
p4891
S'1231587'
p4892
sS'Van Helsing (2004)'
p4893
S'0338526'
p4894
sS'Terminator Salvation (2009)'
p4895
S'0438488'
p4896
sS'Little Man (2006)'
p4897
S'0479293'
p4898
sS'Drive Angry (2011)'
p4899
S'1502404'
p4900
sS'People Will Talk (1951)'
p4901
S'0043915'
p4902
sS'Behind the Mask: The Rise of Leslie Vernon (2006)'
p4903
S'0437857'
p4904
sS'My Summer of Love (2004)'
p4905
S'0382189'
p4906
sS'Interview, The (1998)'
p4907
S'5328208'
p4908
sS'Gunner Palace (2004)'
p4909
S'0424129'
p4910
sS'Late Spring (Banshun) (1949)'
p4911
S'0041154'
p4912
sS'Material Girls (2006)'
p4913
S'0433412'
p4914
sS'Where the Truth Lies (2005)'
p4915
S'0373450'
p4916
sS'Cinderella Story, A (2004)'
p4917
S'0356470'
p4918
sS'Horsemen (2009)'
p4919
S'0892767'
p4920
sS'Father Hood (1993)'
p4921
S'0106877'
p4922
sS'Paper Clips (2004)'
p4923
S'0380615'
p4924
sS'Twentynine Palms (2003)'
p4925
S'0315110'
p4926
sS"Mr. Bean's Holiday (2007)"
p4927
S'0453451'
p4928
sS'Counselor, The (2013)'
p4929
S'0680054'
p4930
sS'Batman: The Dark Knight Returns, Part 1 (2012)'
p4931
S'2313197'
p4932
sS'Lot Like Love, A (2005)'
p4933
S'0391304'
p4934
sS'FLCL (2000)'
p4935
S'0279077'
p4936
sS'Exit Through the Gift Shop (2010)'
p4937
S'1587707'
p4938
sS'I Wanna Hold Your Hand (1978)'
p4939
S'0077714'
p4940
sS'Abduction (2011)'
p4941
S'1600195'
p4942
sS'Voices of a Distant Star (Hoshi no koe) (2003)'
p4943
S'0370754'
p4944
sS'Poseidon Adventure, The (2005) '
p4945
S'0069113'
p4946
sS'Happy Feet Two (2011)'
p4947
S'2203801'
p4948
sS'You, Me and Dupree (2006)'
p4949
S'0463034'
p4950
sS'Girlfriend Experience, The (2009)'
p4951
S'3846642'
p4952
sS'Indiana Jones and the Kingdom of the Crystal Skull (2008)'
p4953
S'0367882'
p4954
sS'Greatest Game Ever Played, The (2005)'
p4955
S'0388980'
p4956
sS'Amazing Spider-Man, The (2012)'
p4957
S'1813656'
p4958
sS'Waiting for Superman (2010)'
p4959
S'1566648'
p4960
sS'License to Wed (2007)'
p4961
S'0762114'
p4962
sS'Rambo (2008)'
p4963
S'0462499'
p4964
sS'Greatest Movie Ever Sold, The (POM Wonderful Presents: The Greatest Movie Ever Sold) (2011)'
p4965
S'1743720'
p4966
sS'Gran Torino (2008)'
p4967
S'1205489'
p4968
sS'Zach Galifianakis: Live at the Purple Onion (2006)'
p4969
S'0804558'
p4970
sS'Road, The (2009)'
p4971
S'1327801'
p4972
sS'Eagle vs Shark (2007)'
p4973
S'0494222'
p4974
sS'End of the Spear (2005)'
p4975
S'0399862'
p4976
sS'Taxi (2004)'
p4977
S'0316732'
p4978
sS'They Live by Night (1949)'
p4979
S'0040872'
p4980
sS'Chloe (2009)'
p4981
S'1352824'
p4982
sS'SpongeBob SquarePants Movie, The (2004)'
p4983
S'0345950'
p4984
sS'Ice Station Zebra (1968)'
p4985
S'0063121'
p4986
sS'Asterix & Obelix vs. Caesar (Ast\xc3\xa9rix et Ob\xc3\xa9lix contre C\xc3\xa9sar) (1999)'
p4987
S'0133385'
p4988
sS'Longest Yard, The (2005)'
p4989
S'6035062'
p4990
sS'Post Grad (2009)'
p4991
S'1142433'
p4992
sS'Education, An (2009)'
p4993
S'0237200'
p4994
sS'Tron: Legacy (2010)'
p4995
S'1104001'
p4996
sS'TiMER (2009)'
p4997
S'1179794'
p4998
sS'Ken Park (2002)'
p4999
S'0209077'
p5000
sS'Odd Man Out (1947)'
p5001
S'0039677'
p5002
sS'Kon-Tiki (2012)'
p5003
S'1613750'
p5004
sS'Pirates of the Caribbean: On Stranger Tides (2011)'
p5005
S'1298650'
p5006
sS'Darkness (2002)'
p5007
S'0273517'
p5008
sS'Battle: Los Angeles (2011)'
p5009
S'2359006'
p5010
sS"Lee Daniels' The Butler (2013)"
p5011
S'1327773'
p5012
sS'Martian Child (2007)'
p5013
S'0415965'
p5014
sS'Insidious: Chapter 2 (2013)'
p5015
S'2226417'
p5016
sS'Burlesque (2010)'
p5017
S'1126591'
p5018
sS'Code Name: The Cleaner (2007)'
p5019
S'0462229'
p5020
sS'Infamous (2006)'
p5021
S'0420609'
p5022
sS'Catch That Kid (2004)'
p5023
S'0337917'
p5024
sS'Coraline (2009)'
p5025
S'0327597'
p5026
sS'Chaplin (1992)'
p5027
S'0103939'
p5028
sS'Croods, The (2013)'
p5029
S'0481499'
p5030
sS'Fifty Dead Men Walking (2008)'
p5031
S'1097643'
p5032
sS'Undertow (2004)'
p5033
S'0360130'
p5034
sS'Cars 2 (2011)'
p5035
S'1216475'
p5036
sS'Blind Side, The  (2009)'
p5037
S'5102536'
p5038
sS'Persepolis (2007)'
p5039
S'0808417'
p5040
sS'Miracle Worker, The (1962)'
p5041
S'0056241'
p5042
sS'Criminal (2004)'
p5043
S'0362526'
p5044
sS'Appleseed (Appurush\xc3\xaedo) (2004)'
p5045
S'0401233'
p5046
sS'Jack Reacher (2012)'
p5047
S'0790724'
p5048
sS'Frankenweenie (2012)'
p5049
S'1142977'
p5050
sS'Carrie (1952)'
p5051
S'0044486'
p5052
sS'John Dies at the End (2012)'
p5053
S'1783732'
p5054
sS'Merry Christmas Mr. Lawrence (1983)'
p5055
S'0085933'
p5056
sS"Before the Devil Knows You're Dead (2007)"
p5057
S'0292963'
p5058
sS'Samurai I: Musashi Miyamoto (Miyamoto Musashi) (1954)'
p5059
S'0047444'
p5060
sS'Seducing Doctor Lewis (Grande s\xc3\xa9duction, La) (2003)'
p5061
S'0366532'
p5062
sS'Rebound, The (2009)'
p5063
S'1205535'
p5064
sS'Everything Is Illuminated (2005)'
p5065
S'0404030'
p5066
sS'Stranger Than Fiction (2006)'
p5067
S'0420223'
p5068
sS'Gnomeo & Juliet (2011)'
p5069
S'0377981'
p5070
sS'Dirty Shame, A (2004)'
p5071
S'0365125'
p5072
sS"Goya's Ghosts (2006)"
p5073
S'0455957'
p5074
sS'Night in Casablanca, A (1946)'
p5075
S'0038777'
p5076
sS'Food of the Gods, The (1976)'
p5077
S'0074540'
p5078
sS'Vicky Cristina Barcelona (2008)'
p5079
S'0497465'
p5080
sS'Conviction (2010)'
p5081
S'1244754'
p5082
sS'Art of the Steal, The (2009)'
p5083
S'1326733'
p5084
sS'Ringer, The (2005)'
p5085
S'0267891'
p5086
sS'Super High Me (2007)'
p5087
S'1111833'
p5088
sS"What's Your Number? (2011)"
p5089
S'0770703'
p5090
sS"Don't Come Knocking (2005)"
p5091
S'0377800'
p5092
sS'Mother (Madeo) (2009)'
p5093
S'1216496'
p5094
sS'I Love You, Beth Cooper (2009)'
p5095
S'1032815'
p5096
sS'Three Burials of Melquiades Estrada, The (2006)'
p5097
S'0419294'
p5098
sS'Ben X (2007)'
p5099
S'0953318'
p5100
sS'Book of Eli, The (2010)'
p5101
S'1037705'
p5102
sS'Take the Lead (2006)'
p5103
S'0446046'
p5104
sS'Splinter (2008)'
p5105
S'1031280'
p5106
sS'Mask (1985)'
p5107
S'0089560'
p5108
sS'National Treasure (2004)'
p5109
S'0368891'
p5110
sS'Watermelon Man, The (1970)'
p5111
S'0066550'
p5112
sS'Zoom (2006)'
p5113
S'0383060'
p5114
sS'L\xc3\xa9olo (1992)'
p5115
S'0104782'
p5116
sS'Animal Kingdom (2010)'
p5117
S'1313092'
p5118
sS'Harry Potter and the Half-Blood Prince (2009)'
p5119
S'0417741'
p5120
sS'Feast (2005)'
p5121
S'0426459'
p5122
sS'Violent Cop (Sono otoko, ky\xc3\xb4b\xc3\xb4 ni tsuki) (1989)'
p5123
S'0098360'
p5124
sS'Amityville Horror, The (2005)'
p5125
S'0384806'
p5126
sS'Made of Honor (2008)'
p5127
S'0866439'
p5128
sS'Darwin Awards, The (2006)'
p5129
S'0428446'
p5130
sS'Jonestown: The Life and Death of Peoples Temple (2006)'
p5131
S'0762111'
p5132
sS'Damn Yankees! (1958)'
p5133
S'0051516'
p5134
sS'Colour Me Kubrick: A True...ish Story (2005)'
p5135
S'0376543'
p5136
sS'Samsara (2011)'
p5137
S'0770802'
p5138
sS'Now You See Me (2013)'
p5139
S'1670345'
p5140
sS'Prairie Home Companion, A (2006)'
p5141
S'0420087'
p5142
sS"That's Entertainment! III (1994)"
p5143
S'0111408'
p5144
sS"Big Momma's House 2 (2006)"
p5145
S'0421729'
p5146
sS'Destination Tokyo (1943)'
p5147
S'0035799'
p5148
sS'Lower Depths, The (Donzoko) (1957)'
p5149
S'0050330'
p5150
sS'Melvin Goes to Dinner (2003)'
p5151
S'0323633'
p5152
sS'Zazie dans le m\xc3\xa9tro (1960)'
p5153
S'4248902'
p5154
sS'R.I.P.D. (2013)'
p5155
S'0790736'
p5156
sS'Crazy Stranger, The (Gadjo Dilo) (1997)'
p5157
S'0122082'
p5158
sS'Scream, Blacula, Scream! (1973)'
p5159
S'0070656'
p5160
sS'Black Sheep (2006)'
p5161
S'0779982'
p5162
sS'Mr. Nanny (1993)'
p5163
S'0107612'
p5164
sS'Hole, The (2001)'
p5165
S'0242527'
p5166
sS'Anne of Green Gables (1985)'
p5167
S'0088727'
p5168
sS'Magician, The (Ansiktet) (1958)'
p5169
S'0051365'
p5170
sS'Harakiri (Seppuku) (1962)'
p5171
S'0056058'
p5172
sS'Nanny McPhee (2005)'
p5173
S'0396752'
p5174
sS'Pandorum (2009)'
p5175
S'1188729'
p5176
sS'Nightmare on Elm Street, A (2010)'
p5177
S'0087800'
p5178
sS'Baader Meinhof Komplex, Der (2008)'
p5179
S'0765432'
p5180
sS'Wrong Turn 2: Dead End (2007)'
p5181
S'0804555'
p5182
sS'War, Inc. (2008)'
p5183
S'0884224'
p5184
sS'Munich (2005)'
p5185
S'0408306'
p5186
sS'Private Lives of Pippa Lee, The (2009)'
p5187
S'1134629'
p5188
sS'Lady in the Water (2006)'
p5189
S'0452637'
p5190
sS'Dolce Vita, La (1960)'
p5191
S'4325420'
p5192
sS'Larry the Cable Guy: Health Inspector (2006)'
p5193
S'0462395'
p5194
sS'Cool World (1992)'
p5195
S'0104009'
p5196
sS'Babylon 5: The Gathering (1993)'
p5197
S'0106336'
p5198
sS'Snow Cake (2006)'
p5199
S'0448124'
p5200
sS'Rock of Ages (2012)'
p5201
S'1336608'
p5202
sS'Fracture (2007)'
p5203
S'0488120'
p5204
sS'Confessions of a Teenage Drama Queen (2004)'
p5205
S'0361467'
p5206
sS'Invincible (2006)'
p5207
S'0445990'
p5208
sS"'Round Midnight (1986)"
p5209
S'0090557'
p5210
sS'Great Debaters, The (2007)'
p5211
S'0427309'
p5212
sS'Phantom Tollbooth, The (1970)'
p5213
S'0064806'
p5214
sS"Child, The (L'enfant) (2005)"
p5215
S'0456396'
p5216
sS'Revolutionary Road (2008)'
p5217
S'0959337'
p5218
sS'EuroTrip (2004)'
p5219
S'0356150'
p5220
sS'Elysium (2013)'
p5221
S'1535108'
p5222
sS'Trust the Man (2005)'
p5223
S'0427968'
p5224
sS'Sunrise: A Song of Two Humans (1927)'
p5225
S'0018455'
p5226
sS'After You (Apr\xc3\xa8s vous...) (2003)'
p5227
S'0344604'
p5228
sS'Compliance (2012)'
p5229
S'1971352'
p5230
sS'Takers (2010)'
p5231
S'1135084'
p5232
sS'Snow Angels (2007)'
p5233
S'0453548'
p5234
sS'Bedtime Stories (2008)'
p5235
S'0960731'
p5236
sS'Bride Wore Black, The (La mari\xc3\xa9e \xc3\xa9tait en noir) (1968)'
p5237
S'0061955'
p5238
sS'Reader, The (2008)'
p5239
S'0976051'
p5240
sS"Long Day's Journey Into Night (1962)"
p5241
S'0056196'
p5242
sS'Starship Troopers 3: Marauder (2008)'
p5243
S'0844760'
p5244
sS'Revanche (2008)'
p5245
S'1173745'
p5246
sS'Kes (1969)'
p5247
S'0064541'
p5248
sS'Employee of the Month (2004)'
p5249
S'0362590'
p5250
sS'Monsieur Lazhar (2011)'
p5251
S'2011971'
p5252
sS'WALL\xc2\xb7E (2008)'
p5253
S'0910970'
p5254
sS'Larry Crowne (2011)'
p5255
S'1583420'
p5256
sS'Hostage (2005)'
p5257
S'0340163'
p5258
sS'Robots (2005)'
p5259
S'0358082'
p5260
sS"Warrior's Way, The (2010)"
p5261
S'1032751'
p5262
sS'Grey Gardens (2009)'
p5263
S'0758751'
p5264
sS'Evening with Kevin Smith 2: Evening Harder, An (2006)'
p5265
S'0910873'
p5266
sS'Raven, The (2012)'
p5267
S'2311282'
p5268
sS'Searching for Sugar Man (2012)'
p5269
S'2125608'
p5270
sS'Tucker & Dale vs Evil (2010)'
p5271
S'1465522'
p5272
sS'Stargate: Continuum (2008)'
p5273
S'0929629'
p5274
sS'Matador, The (2005)'
p5275
S'0365485'
p5276
sS'Just Like Heaven (2005)'
p5277
S'0425123'
p5278
sS'Mystery of the Wax Museum (1933)'
p5279
S'0024368'
p5280
sS'Hunger Games: Catching Fire, The (2013)'
p5281
S'1951264'
p5282
sS'Into the Wild (2007)'
p5283
S'0758758'
p5284
sS'Middle Men (2010)'
p5285
S'1664697'
p5286
sS'I Am David (2003)'
p5287
S'0327919'
p5288
sS"Paris, I Love You (Paris, je t'aime) (2006)"
p5289
S'0401711'
p5290
sS'9/11 (2002)'
p5291
S'0312318'
p5292
sS'Away We Go (2009)'
p5293
S'1176740'
p5294
sS'Resurrecting the Champ (2007)'
p5295
S'0416185'
p5296
sS'One Day (2011)'
p5297
S'1563738'
p5298
sS'We Bought a Zoo (2011)'
p5299
S'1389137'
p5300
sS'Incredibles, The (2004)'
p5301
S'2233584'
p5302
sS'Zeitgeist: Addendum (2008)'
p5303
S'1332128'
p5304
sS'Collapse (2009)'
p5305
S'1503769'
p5306
sS'Goodbye, Mr. Chips (1939)'
p5307
S'0031385'
p5308
sS'Reefer Madness: The Movie Musical (2005)'
p5309
S'0404364'
p5310
sS'Dead Man Down (2013)'
p5311
S'2101341'
p5312
sS'Way, Way Back, The (2013)'
p5313
S'1727388'
p5314
sS'Sands of Iwo Jima (1949)'
p5315
S'0041841'
p5316
sS'Halloween (2007)'
p5317
S'0373883'
p5318
sS'Tale of Ham and Passion, A (Jam\xc3\xb3n, Jam\xc3\xb3n) (1992)'
p5319
S'0104545'
p5320
sS'Trip, The (1967)'
p5321
S'0062395'
p5322
sS'Devil Wears Prada, The (2006)'
p5323
S'0458352'
p5324
sS'J. Edgar (2011)'
p5325
S'1616195'
p5326
sS'Man of the House (2005)'
p5327
S'0331933'
p5328
sS'Proof (2005)'
p5329
S'0377107'
p5330
sS'Signal, The (2007)'
p5331
S'0780607'
p5332
sS'Inception (2010)'
p5333
S'1375666'
p5334
sS'Pride and Glory (2008)'
p5335
S'0482572'
p5336
sS'Magic Mike (2012)'
p5337
S'1915581'
p5338
sS'Katyn (2007)'
p5339
S'0879843'
p5340
sS'Ju-on: The Grudge (2002)'
p5341
S'0364385'
p5342
sS"In My Father's Den (2004)"
p5343
S'0385017'
p5344
sS'Space Truckers (1996)'
p5345
S'0120199'
p5346
sS'Tower Heist (2011)'
p5347
S'0471042'
p5348
sS'Intermission (2003)'
p5349
S'0332658'
p5350
sS'Arthur and the Invisibles (2007)'
p5351
S'0344854'
p5352
sS'Miss Potter (2006)'
p5353
S'0482546'
p5354
sS'My Darling Clementine (1946)'
p5355
S'0038762'
p5356
sS'Saw III (2006)'
p5357
S'0489270'
p5358
sS'Blind Swordsman: Zatoichi, The (Zat\xc3\xb4ichi) (2003)'
p5359
S'0363226'
p5360
sS'I Heart Huckabees (2004)'
p5361
S'0356721'
p5362
sS'Little Children (2006)'
p5363
S'0404203'
p5364
sS'Just My Luck (2006)'
p5365
S'0397078'
p5366
sS'Senna (2010)'
p5367
S'1424432'
p5368
sS'Made in Dagenham (2010)'
p5369
S'1371155'
p5370
sS'Fall, The (2006)'
p5371
S'0460791'
p5372
sS'Killing Room, The (2009)'
p5373
S'1119191'
p5374
sS'Promotion, The (2008)'
p5375
S'1167146'
p5376
sS'Serenity (2005)'
p5377
S'0379786'
p5378
sS'Blood Diamond (2006)'
p5379
S'0450259'
p5380
sS'In the Valley of Elah (2007)'
p5381
S'0478134'
p5382
sS'There Will Be Blood (2007)'
p5383
S'0469494'
p5384
sS'Pina (2011)'
p5385
S'1440266'
p5386
sS'Flicka (2006)'
p5387
S'0434215'
p5388
sS'Darling (1965)'
p5389
S'0059084'
p5390
sS'Fast & Furious 6 (Fast and the Furious 6, The) (2013)'
p5391
S'5115488'
p5392
sS'Deuce Bigalow: European Gigolo (2005)'
p5393
S'0367652'
p5394
sS'Elegy (2008)'
p5395
S'0974554'
p5396
sS'Good Shepherd, The (2006)'
p5397
S'0343737'
p5398
sS'American Pie Presents: Band Camp (American Pie 4: Band Camp) (2005)'
p5399
S'2970736'
p5400
sS'High School Musical (2006)'
p5401
S'0475293'
p5402
sS'Chronicles of Narnia: The Lion, the Witch and the Wardrobe, The (2005)'
p5403
S'0363771'
p5404
sS'Two for the Road (1967)'
p5405
S'0062407'
p5406
sS'Cheaper by the Dozen (2003)'
p5407
S'0349205'
p5408
sS'Easy Virtue (2008)'
p5409
S'0808244'
p5410
sS'Nest, The (Nid de Gu\xc3\xaapes) (2002)'
p5411
S'0280990'
p5412
sS'Bee Season (2005)'
p5413
S'0387059'
p5414
sS'Chronicles of Riddick, The (2004)'
p5415
S'0296572'
p5416
sS'Troll Hunter, The (Trolljegeren) (2010)'
p5417
S'1740707'
p5418
sS'Beautiful Creatures (2013)'
p5419
S'1559547'
p5420
sS'Temple Grandin (2010)'
p5421
S'1278469'
p5422
sS'Seeking a Friend for the End of the World (2012)'
p5423
S'1307068'
p5424
sS'Roaring Twenties, The (1939)'
p5425
S'3882676'
p5426
sS'Legend, The (Legend of Fong Sai-Yuk, The) (Fong Sai Yuk) (1993)'
p5427
S'0106936'
p5428
sS'RocknRolla (2008)'
p5429
S'1032755'
p5430
sS'House of Flying Daggers (Shi mian mai fu) (2004)'
p5431
S'0385004'
p5432
sS'Another Thin Man (1939)'
p5433
S'0031047'
p5434
sS'Memphis Belle (1990)'
p5435
S'0100133'
p5436
sS'Get the Gringo (2012)'
p5437
S'1567609'
p5438
sS'Day at the Races, A (1937)'
p5439
S'0550511'
p5440
sS'Looper (2012)'
p5441
S'1276104'
p5442
sS'Sentinel, The (1977)'
p5443
S'0076683'
p5444
sS'Painted Veil, The (2006)'
p5445
S'0446755'
p5446
sS'Marley (2012)'
p5447
S'1183919'
p5448
sS'Scooby-Doo 2: Monsters Unleashed (2004)'
p5449
S'0331632'
p5450
sS'Shopgirl (2005)'
p5451
S'0338427'
p5452
sS'Sauna (2008)'
p5453
S'1124394'
p5454
sS'I Am Legend (2007)'
p5455
S'0480249'
p5456
sS'Atonement (2007)'
p5457
S'0783233'
p5458
sS'Wall Street: Money Never Sleeps (2010)'
p5459
S'1027718'
p5460
sS'Rapa Nui (1994)'
p5461
S'0110944'
p5462
sS'6ixtynin9 (Ruang Talok 69) (1999)'
p5463
S'0235154'
p5464
sS'Notorious (2009)'
p5465
S'0472198'
p5466
sS'Two of a Kind (Pair of Jokers) (Second Chance) (Twist of Fate) (1983)'
p5467
S'0086494'
p5468
sS'Creep (2004)'
p5469
S'0381966'
p5470
sS'Exorcism of Emily Rose, The (2005)'
p5471
S'0404032'
p5472
sS'Stake Land (2010)'
p5473
S'1464580'
p5474
sS'Sophie Scholl: The Final Days (Sophie Scholl - Die letzten Tage) (2005)'
p5475
S'0426578'
p5476
sS'American Dreamz (2006)'
p5477
S'0465142'
p5478
sS'Zero Dark Thirty (2012)'
p5479
S'1790885'
p5480
sS'On a Clear Day (2005)'
p5481
S'0410400'
p5482
sS'Lammbock (2001)'
p5483
S'0258760'
p5484
sS'Great Expectations (1946)'
p5485
S'0038574'
p5486
sS'Catch and Release (2006)'
p5487
S'0395495'
p5488
sS'Ambush (Rukaj\xc3\xa4rven tie) (1999)'
p5489
S'0162625'
p5490
sS'Cloak & Dagger (1984)'
p5491
S'0087065'
p5492
sS'Dobermann (1997)'
p5493
S'0118996'
p5494
sS'99 francs (2007)'
p5495
S'0875113'
p5496
sS'Snow White and the Huntsman (2012)'
p5497
S'1735898'
p5498
sS'White Palace (1990)'
p5499
S'0103251'
p5500
sS'Jack and Jill (2011)'
p5501
S'0810913'
p5502
sS'Death Race 2000 (1975)'
p5503
S'0072856'
p5504
sS'Uncle Boonmee Who Can Recall His Past Lives (Loong Boonmee raleuk chat) (2010)'
p5505
S'1588895'
p5506
sS'Who Killed the Electric Car? (2006)'
p5507
S'0489037'
p5508
sS'Ip Man 2 (2010)'
p5509
S'1386932'
p5510
sS'1900 (Novecento) (1976)'
p5511
S'0074084'
p5512
sS'Cocoanuts, The (1929)'
p5513
S'0019777'
p5514
sS'Best Defense (1984)'
p5515
S'0086955'
p5516
sS'Happening, The (2008)'
p5517
S'5290568'
p5518
sS'Beauty Shop (2005)'
p5519
S'0388500'
p5520
sS'Summertime (1955)'
p5521
S'0048673'
p5522
sS'G.I. Joe: The Rise of Cobra (2009)'
p5523
S'1046173'
p5524
sS'Unfinished Life, An (2005)'
p5525
S'1651882'
p5526
sS'District 13 (Banlieue 13) (2004)'
p5527
S'0414852'
p5528
sS'Illusionist, The (2006)'
p5529
S'0443543'
p5530
sS"Love Me If You Dare (Jeux d'enfants) (2003)"
p5531
S'0364517'
p5532
sS'Chocolate (2008)'
p5533
S'1183252'
p5534
sS'Silent Hill (2006)'
p5535
S'0384537'
p5536
sS'King Arthur (2004)'
p5537
S'0349683'
p5538
sS'Counterfeiters, The (Die F\xc3\xa4lscher) (2007)'
p5539
S'0813547'
p5540
sS'Spectacular Now, The (2013)'
p5541
S'1714206'
p5542
sS'Son of the Pink Panther (1993)'
p5543
S'0108187'
p5544
sS'Sansho the Bailiff (Sansh\xc3\xb4 day\xc3\xbb) (1954)'
p5545
S'0047445'
p5546
sS'7 Plus Seven (1970)'
p5547
S'0066356'
p5548
sS'Angels with Dirty Faces (1938)'
p5549
S'0029870'
p5550
sS'Jack-Jack Attack (2005)'
p5551
S'0455565'
p5552
sS'Adventures of Tintin, The (2011)'
p5553
S'0983193'
p5554
sS'Battle Royale 2: Requiem (Batoru rowaiaru II: Chinkonka) (2003)'
p5555
S'0338763'
p5556
sS'Lone Wolf and Cub: Baby Cart at the River Styx (Kozure \xc3\x94kami: Sanzu no kawa no ubaguruma) (1972)'
p5557
S'0068816'
p5558
sS'Kicking & Screaming (2005)'
p5559
S'0384642'
p5560
sS'Mad Hot Ballroom (2005)'
p5561
S'0438205'
p5562
sS'Babylon 5: In the Beginning (1998)'
p5563
S'0120711'
p5564
sS'Nebraska (2013)'
p5565
S'1821549'
p5566
sS'Strangers, The (2008)'
p5567
S'0837549'
p5568
sS'Pirates! Band of Misfits, The (2012)'
p5569
S'1430626'
p5570
sS'P.S. I Love You (2007)'
p5571
S'0431308'
p5572
sS'Howl (2010)'
p5573
S'1049402'
p5574
sS'Ex, The (2007)'
p5575
S'0300803'
p5576
sS'Biutiful (2010)'
p5577
S'1164999'
p5578
sS'Flowers of War, The (Jin l\xc3\xadng sh\xc3\xad san chai) (2011)'
p5579
S'1410063'
p5580
sS'Monster in a Box (1992)'
p5581
S'0102467'
p5582
sS'After the Wedding (Efter brylluppet) (2006)'
p5583
S'0457655'
p5584
sS'Heaven Can Wait (1943)'
p5585
S'0035979'
p5586
sS'Ricky Gervais Live: Animals (2003)'
p5587
S'0397612'
p5588
sS"I Don't Know How She Does It (2011)"
p5589
S'1742650'
p5590
sS'Daria: Is it Fall Yet? (2000)'
p5591
S'0250440'
p5592
sS'Going the Distance (2010)'
p5593
S'1322312'
p5594
sS'Before Sunset (2004)'
p5595
S'0381681'
p5596
sS'Children of Dune (2003)'
p5597
S'0287839'
p5598
sS'Impossible, The (Imposible, Lo) (2012)'
p5599
S'1649419'
p5600
sS'Point Blank (\xc3\x80 bout portant) (2010)'
p5601
S'1545759'
p5602
sS'Rumble Fish (1983)'
p5603
S'0086216'
p5604
sS'Shade (2003)'
p5605
S'0323939'
p5606
sS'Sunshine (2007)'
p5607
S'0448134'
p5608
sS'Love Guru, The (2008)'
p5609
S'0811138'
p5610
sS'Charley Varrick (1973)'
p5611
S'0069865'
p5612
sS'Picture of Dorian Gray, The (1945)'
p5613
S'0037988'
p5614
sS'Priest (2011)'
p5615
S'0822847'
p5616
sS'House of Wax (2005)'
p5617
S'0397065'
p5618
sS'Stolen Kisses (Baisers vol\xc3\xa9s) (1968)'
p5619
S'0062695'
p5620
sS'Cop Out (2010)'
p5621
S'1385867'
p5622
sS'Unborn, The (2009)'
p5623
S'1139668'
p5624
sS'Very Harold & Kumar 3D Christmas, A (2011)'
p5625
S'1268799'
p5626
sS'Mr. Woodcock (2007)'
p5627
S'0419984'
p5628
sS'Big Wednesday (1978)'
p5629
S'0077235'
p5630
sS'Day After, The (1983)'
p5631
S'0085404'
p5632
sS'Franklyn (2008)'
p5633
S'0893402'
p5634
sS'Mad Money (2008)'
p5635
S'0951216'
p5636
sS'Barnyard: The Original Party Animals (2006)'
p5637
S'0414853'
p5638
sS'Easter Parade (1948)'
p5639
S'0040308'
p5640
sS'Batman Begins (2005)'
p5641
S'0372784'
p5642
sS'Rendition (2007)'
p5643
S'0804522'
p5644
sS'Factory Girl (2006)'
p5645
S'0432402'
p5646
sS'Charly (1968)'
p5647
S'0062794'
p5648
sS'Camelot (1967)'
p5649
S'0061439'
p5650
sS'Wild Parrots of Telegraph Hill, The (2003)'
p5651
S'0424565'
p5652
sS'Lucky You (2007)'
p5653
S'0338216'
p5654
sS'Rampart (2011)'
p5655
S'1640548'
p5656
sS'Last of Sheila, The (1973)'
p5657
S'0070291'
p5658
sS'Secret World of Arrietty, The (Kari-gurashi no Arietti) (2010)'
p5659
S'1568921'
p5660
sS'Mongol (2007)'
p5661
S'0416044'
p5662
sS'My Name Is Nobody (Il Mio nome \xc3\xa8 Nessuno) (1973)'
p5663
S'0070215'
p5664
sS'What Happens in Vegas... (2008)'
p5665
S'1033643'
p5666
sS'Crossroads (1986)'
p5667
S'0090888'
p5668
sS'Eat Pray Love (2010)'
p5669
S'0879870'
p5670
sS'Weather Underground, The (2002)'
p5671
S'0343168'
p5672
sS'Two Lovers (2008)'
p5673
S'1103275'
p5674
sS"Bebe's Kids (1992)"
p5675
S'0103783'
p5676
sS'Quartet (2012)'
p5677
S'1441951'
p5678
sS'1984 (1956)'
p5679
S'0048918'
p5680
sS'Grown Ups (2010)'
p5681
S'1375670'
p5682
sS'Marooned (1969)'
p5683
S'0064639'
p5684
sS'Punisher: War Zone (2008)'
p5685
S'0450314'
p5686
sS'Earrings of Madame de..., The (Madame de...) (1953)'
p5687
S'0046022'
p5688
sS'Benchwarmers, The (2006)'
p5689
S'0437863'
p5690
sS'Mary and Max (2009)'
p5691
S'0978762'
p5692
sS'Harlan County U.S.A. (1976)'
p5693
S'0074605'
p5694
sS'Infernal Affairs (Mou gaan dou) (2002)'
p5695
S'0338564'
p5696
sS'[REC]\xc2\xb2 (2009)'
p5697
S'1245112'
p5698
sS'Step Brothers (2008)'
p5699
S'0838283'
p5700
sS'Cat People (1942)'
p5701
S'0034587'
p5702
sS'They Drive by Night (1940)'
p5703
S'0033149'
p5704
sS'How to Train Your Dragon (2010)'
p5705
S'0892769'
p5706
sS'Coriolanus (2011)'
p5707
S'1372686'
p5708
sS'Attack the Block (2011)'
p5709
S'1478964'
p5710
sS"Legend of the Guardians: The Owls of Ga'Hoole (2010)"
p5711
S'1219342'
p5712
sS'Kick-Ass (2010)'
p5713
S'1250777'
p5714
sS'Head-On (Gegen die Wand) (2004)'
p5715
S'0347048'
p5716
sS"I'm Still Here (2010)"
p5717
S'1356864'
p5718
sS'Man from Nowhere, The (Ajeossi) (2010)'
p5719
S'1527788'
p5720
sS'Dinner for Schmucks (2010)'
p5721
S'0427152'
p5722
sS'Up (2009)'
p5723
S'1049413'
p5724
sS'Blood and Chocolate (2007)'
p5725
S'0397044'
p5726
sS'One Missed Call (Chakushin ari) (2003)'
p5727
S'0366292'
p5728
sS'Prestige, The (2006)'
p5729
S'0482571'
p5730
sS'Immortals (2011)'
p5731
S'1253864'
p5732
sS'Sweeney Todd (2006)'
p5733
S'0479760'
p5734
sS"Angels' Share, The (2012)"
p5735
S'1924394'
p5736
sS"Shackleton's Antarctic Adventure (2001)"
p5737
S'0280105'
p5738
sS'Sukiyaki Western Django (2008)'
p5739
S'0906665'
p5740
sS"That's My Boy (2012)"
p5741
S'1232200'
p5742
sS'Runaways, The (2010)'
p5743
S'1017451'
p5744
sS'Inside Deep Throat (2005)'
p5745
S'0418753'
p5746
sS'Murmur of the Heart (Le souffle au coeur) (1971)'
p5747
S'0067778'
p5748
sS'Pillars of the Earth, The (2010)'
p5749
S'1453159'
p5750
sS'Frozen (2010)'
p5751
S'1323045'
p5752
sS'Dreamers, The (2003)'
p5753
S'0309987'
p5754
sS'Scanner Darkly, A (2006)'
p5755
S'0405296'
p5756
sS'Adjustment Bureau, The (2011)'
p5757
S'1385826'
p5758
sS'Shame (2011)'
p5759
S'1723811'
p5760
sS'30 Days of Night (2007)'
p5761
S'0389722'
p5762
sS'Pathfinder (2007)'
p5763
S'0446013'
p5764
sS'Ice Age 4: Continental Drift (2012)'
p5765
S'1667889'
p5766
sS'Fast Five (Fast and the Furious 5, The) (2011)'
p5767
S'1596343'
p5768
sS'Boy with Green Hair, The (1948)'
p5769
S'0040185'
p5770
sS'Big White, The (2005)'
p5771
S'0402850'
p5772
sS'Agora (2009)'
p5773
S'1186830'
p5774
sS"Futurama: Bender's Game (2008)"
p5775
S'1054486'
p5776
sS'She Hate Me (2004)'
p5777
S'0384533'
p5778
sS'Rent (2005)'
p5779
S'0294870'
p5780
sS'Tooth Fairy (2010)'
p5781
S'0808510'
p5782
sS'Au Hasard Balthazar (1966)'
p5783
S'0060138'
p5784
sS'Invasion, The (2007)'
p5785
S'1787872'
p5786
sS'Adventures of Ford Fairlane, The (1990)'
p5787
S'0098987'
p5788
sS'Queen, The (2006)'
p5789
S'0436697'
p5790
sS'Jarhead (2005)'
p5791
S'0418763'
p5792
sS'Act of Killing, The (2012)'
p5793
S'2375605'
p5794
sS'Good Night, The (2007)'
p5795
S'6354354'
p5796
sS'Harry Potter and the Prisoner of Azkaban (2004)'
p5797
S'0304141'
p5798
sS"Nick and Norah's Infinite Playlist (2008)"
p5799
S'0981227'
p5800
sS'Last Song, The (2010)'
p5801
S'1294226'
p5802
sS'Broadway Danny Rose (1984)'
p5803
S'0087003'
p5804
sS'Red Tails (2012)'
p5805
S'0485985'
p5806
sS'Precious (2009)'
p5807
S'0929632'
p5808
sS'Bachelor and the Bobby-Soxer, The (1947)'
p5809
S'0039169'
p5810
sS'Motorcycle Diaries, The (Diarios de motocicleta) (2004)'
p5811
S'0318462'
p5812
sS'Sherlock Holmes (2009)'
p5813
S'0988045'
p5814
sS'Henry Poole is Here (2008)'
p5815
S'1029120'
p5816
sS'Boondock Saints II: All Saints Day, The (2009)'
p5817
S'1300851'
p5818
sS'Trespass (2011)'
p5819
S'1674784'
p5820
sS'Cannonball (1976)'
p5821
S'1992102'
p5822
sS'Mother of Mine (\xc3\x84ideist\xc3\xa4 parhain) (2005)'
p5823
S'0343221'
p5824
sS'Admission (2013)'
p5825
S'1814621'
p5826
sS"Pan's Labyrinth (Laberinto del fauno, El) (2006)"
p5827
S'0457430'
p5828
sS'Thank You for Smoking (2006)'
p5829
S'0799555'
p5830
sS'Lucky Number Slevin (2006)'
p5831
S'0425210'
p5832
sS'Golden Compass, The (2007)'
p5833
S'5283098'
p5834
sS'Bandidas (2006)'
p5835
S'0416496'
p5836
sS'SuperBabies: Baby Geniuses 2 (2004)'
p5837
S'0270846'
p5838
sS'Trouble with Angels, The (1966)'
p5839
S'0061122'
p5840
sS'Amazing Grace (2006)'
p5841
S'0454776'
p5842
sS'Elizabethtown (2005)'
p5843
S'0368709'
p5844
sS'King of California (2007)'
p5845
S'0388182'
p5846
sS'Ride the High Country (1962)'
p5847
S'0056412'
p5848
sS"New Year's Eve (2011)"
p5849
S'1598822'
p5850
sS'Sweet Land (2005)'
p5851
S'0428038'
p5852
sS'Homicide (1991)'
p5853
S'0102048'
p5854
sS'Salmon Fishing in the Yemen (2011)'
p5855
S'1441952'
p5856
sS'Curious Case of Benjamin Button, The (2008)'
p5857
S'0421715'
p5858
sS'Shivers (They Came from Within) (1975)'
p5859
S'0073705'
p5860
sS'Shame (Skammen) (1968)'
p5861
S'0063611'
p5862
sS'Broken English (2007)'
p5863
S'0772157'
p5864
sS'Castaway on the Moon (Kimssi pyoryugi) (2009)'
p5865
S'1499666'
p5866
sS"Bells of St. Mary's, The (1945)"
p5867
S'0037536'
p5868
sS'Hammer, The (2007)'
p5869
S'0814130'
p5870
sS'Prophet, A (Un Proph\xc3\xa8te) (2009)'
p5871
S'1235166'
p5872
sS'Food, Inc. (2008)'
p5873
S'1286537'
p5874
sS'Get Smart (2008)'
p5875
S'0425061'
p5876
sS"Will Ferrell: You're Welcome America - A Final Night with George W Bush (2009)"
p5877
S'1386011'
p5878
sS'Rite, The (2011)'
p5879
S'1161864'
p5880
sS'Dance of the Dead (2008)'
p5881
S'0926063'
p5882
sS'Silver City (2004)'
p5883
S'0376890'
p5884
sS'Life During Wartime (2009)'
p5885
S'0808526'
p5886
sS'Fruitvale Station (2013)'
p5887
S'2334649'
p5888
sS'Stage Beauty (2004)'
p5889
S'0368658'
p5890
sS'Saw IV (2007)'
p5891
S'0890870'
p5892
sS'Once Around (1991)'
p5893
S'0102590'
p5894
sS'Boy in the Striped Pajamas, The (Boy in the Striped Pyjamas, The) (2008)'
p5895
S'0914798'
p5896
sS'Crash (2004)'
p5897
S'0375679'
p5898
sS'Steam of Life (Miesten vuoro) (2010)'
p5899
S'1583323'
p5900
sS'Killer Inside Me, The (2010)'
p5901
S'1701914'
p5902
sS'21 (2008)'
p5903
S'0478087'
p5904
sS'Untraceable (2008)'
p5905
S'0880578'
p5906
sS'Charlie Bartlett (2007)'
p5907
S'0423977'
p5908
sS'Noises Off... (1992)'
p5909
S'0105017'
p5910
sS'Dragonball Evolution (2009)'
p5911
S'1394192'
p5912
sS"National Lampoon's Lady Killers (National Lampoon's Gold Diggers) (2003)"
p5913
S'0376717'
p5914
sS'Pickpocket (1959)'
p5915
S'0053168'
p5916
sS'Distant (Uzak) (2002)'
p5917
S'0346094'
p5918
sS'Bill Cunningham New York (2011)'
p5919
S'1621444'
p5920
sS'To Have and Have Not (1944)'
p5921
S'0037382'
p5922
sS'My Blueberry Nights (2007)'
p5923
S'0765120'
p5924
sS'Ten Commandments, The (1956)'
p5925
S'5431016'
p5926
sS'Last Exorcism, The (2010)'
p5927
S'1320244'
p5928
sS'Couples Retreat (2009)'
p5929
S'1078940'
p5930
sS'Apollo 18 (2011)'
p5931
S'1772240'
p5932
sS'Whip It (2009)'
p5933
S'1172233'
p5934
sS'Legend of Zorro, The (2005)'
p5935
S'0386140'
p5936
sS'Scenes From a Marriage (Scener ur ett \xc3\xa4ktenskap) (1973)'
p5937
S'0070644'
p5938
sS'Librarian: Quest for the Spear, The (2004)'
p5939
S'0412915'
p5940
sS'Cemetery Junction (2010)'
p5941
S'1196204'
p5942
sS'Brother Sun, Sister Moon (Fratello sole, sorella luna) (1972)'
p5943
S'0069824'
p5944
sS'Red 2 (2013)'
p5945
S'1821694'
p5946
sS'Dead or Alive: Hanzaisha (1999)'
p5947
S'0221111'
p5948
sS'Overboard (1987)'
p5949
S'0093693'
p5950
sS'Total Recall (2012)'
p5951
S'1386703'
p5952
sS'Barbershop 2: Back in Business (2004)'
p5953
S'0337579'
p5954
sS'Taking Woodstock (2009)'
p5955
S'1127896'
p5956
sS'Nativity Story, The (2006)'
p5957
S'0762121'
p5958
sS'Open Water (2003)'
p5959
S'0374102'
p5960
sS'What Have I Done to Deserve This? (\xc2\xbfQu\xc3\xa9 he hecho yo para merecer esto!!) (1984)'
p5961
S'0088461'
p5962
sS'Hoot (2006)'
p5963
S'0453494'
p5964
sS'Legionnaire (1998)'
p5965
S'0126388'
p5966
sS'Dead Silence (2007)'
p5967
S'0455760'
p5968
sS'Latter Days (2003)'
p5969
S'0345551'
p5970
sS'Leatherheads (2008)'
p5971
S'0379865'
p5972
sS'Nothing Sacred (1937)'
p5973
S'0029322'
p5974
sS'Robinson Crusoe on Mars (1964)'
p5975
S'0058530'
p5976
sS'Rose Red (2002)'
p5977
S'0259153'
p5978
sS'Great Buck Howard, The (2008)'
p5979
S'0460810'
p5980
sS'Over Her Dead Body (2008)'
p5981
S'0785007'
p5982
sS'Next (2007)'
p5983
S'0435705'
p5984
sS'Humboldt County (2008)'
p5985
S'0870122'
p5986
sS'Old Dogs (2009)'
p5987
S'0976238'
p5988
sS'1408 (2007)'
p5989
S'0450385'
p5990
sS'Snow Walker, The (2003)'
p5991
S'0337721'
p5992
sS'Law Abiding Citizen (2009)'
p5993
S'1197624'
p5994
sS'Running With Scissors (2006)'
p5995
S'0439289'
p5996
sS'Capricorn One (1978)'
p5997
S'0077294'
p5998
sS'Lone Wolf and Cub: Baby Cart in Peril (Kozure \xc3\x94kami: Oya no kokoro ko no kokoro) (1972)'
p5999
S'0143348'
p6000
sS'Blitz (2011)'
p6001
S'1297919'
p6002
sS'Wilbur Wants to Kill Himself (2002)'
p6003
S'0329767'
p6004
sS'Krays, The (1990)'
p6005
S'0099951'
p6006
sS'Scoop (2006)'
p6007
S'0457513'
p6008
sS'10,000 BC (2008)'
p6009
S'0443649'
p6010
sS'27 Dresses (2008)'
p6011
S'0988595'
p6012
sS'Head (1968)'
p6013
S'0063049'
p6014
sS'Iron Sky (2012)'
p6015
S'1034314'
p6016
sS'Royal Affair, A (Kongelig aff\xc3\xa6re, En) (2012)'
p6017
S'1276419'
p6018
sS'Love in the Time of Cholera (2007)'
p6019
S'0484740'
p6020
sS'Fast & Furious (Fast and the Furious 4, The) (2009)'
p6021
S'1013752'
p6022
sS'Stuck (2007)'
p6023
S'0758786'
p6024
sS'Tyrannosaur (2011)'
p6025
S'1204340'
p6026
sS'Babylon 5: A Call to Arms (1999)'
p6027
S'0146455'
p6028
sS'Money for Nothing (1993)'
p6029
S'0107594'
p6030
sS'Hearts and Minds (1974)'
p6031
S'0071604'
p6032
sS'Roxanne (1987)'
p6033
S'0093886'
p6034
sS'Micmacs (Micmacs \xc3\xa0 tire-larigot) (2009)'
p6035
S'5275078'
p6036
sS'Pickup on South Street (1953)'
p6037
S'0046187'
p6038
sS'Club Dread (2004)'
p6039
S'0331953'
p6040
sS'Blueberry (2004)'
p6041
S'0276830'
p6042
sS'International, The (2009)'
p6043
S'1692829'
p6044
sS'Into the Blue (2005)'
p6045
S'0378109'
p6046
sS'My Sassy Girl (Yeopgijeogin geunyeo) (2001)'
p6047
S'0293715'
p6048
sS'Margaret Cho: Assassin (2005)'
p6049
S'0462333'
p6050
sS'Be Kind Rewind (2008)'
p6051
S'0799934'
p6052
sS'For Your Consideration (2006)'
p6053
S'0470765'
p6054
sS'Tekken (2010)'
p6055
S'0411951'
p6056
sS'Just Friends (2005)'
p6057
S'0433400'
p6058
sS'Max Manus (2008)'
p6059
S'1029235'
p6060
sS'Nuns on the Run (1990)'
p6061
S'0100280'
p6062
sS'Evening with Kevin Smith, An (2002)'
p6063
S'0346952'
p6064
sS'Animatrix, The (2003)'
p6065
S'0328832'
p6066
sS'Unreasonable Man, An (2006)'
p6067
S'0492499'
p6068
sS'Trailer Park Boys: Countdown to Liquor Day (2009)'
p6069
S'1337032'
p6070
sS'Incredible Hulk, The (2008)'
p6071
S'0292013'
p6072
sS'August Rush (2007)'
p6073
S'0426931'
p6074
sS'Walking Tall (2004)'
p6075
S'0351977'
p6076
sS"Darwin's Nightmare (2004)"
p6077
S'0424024'
p6078
sS'Extremely Loud and Incredibly Close (2011)'
p6079
S'3024554'
p6080
sS'Duel (1971)'
p6081
S'0067023'
p6082
sS"Pervert's Guide to Cinema, The (2006)"
p6083
S'0828154'
p6084
sS'Thumbsucker (2005)'
p6085
S'0318761'
p6086
sS'Grudge 2, The (2006)'
p6087
S'0433386'
p6088
sS'Secret in Their Eyes, The (El secreto de sus ojos) (2009)'
p6089
S'1305806'
p6090
sS'Saving Mr. Banks (2013)'
p6091
S'2140373'
p6092
sS'My Little Chickadee (1940)'
p6093
S'0032828'
p6094
sS'Little Caesar (1931)'
p6095
S'0021079'
p6096
sS'Sea Hawk, The (1940)'
p6097
S'0033028'
p6098
sS'Hidalgo (2004)'
p6099
S'0317648'
p6100
sS'Diary of Anne Frank, The (1959)'
p6101
S'1605227'
p6102
sS'First Daughter (2004)'
p6103
S'0361620'
p6104
sS'Christmas Carol, A (1984)'
p6105
S'1067106'
p6106
sS'Ruby Sparks (2012)'
p6107
S'1839492'
p6108
sS'On a Clear Day You Can See Forever (1970)'
p6109
S'0066181'
p6110
sS'300 (2007)'
p6111
S'0964824'
p6112
sS'Elite Squad: The Enemy Within (Tropa de Elite 2 - O Inimigo Agora \xc3\x89 Outro) (2010)'
p6113
S'1555149'
p6114
sS'Not Quite Hollywood: The Wild, Untold Story of Ozploitation! (2008)'
p6115
S'0996966'
p6116
sS'BloodRayne (2005)'
p6117
S'0383222'
p6118
sS'Beowulf & Grendel (2005)'
p6119
S'0402057'
p6120
sS'Unknown Soldier, The (Tuntematon sotilas) (1985)'
p6121
S'0090215'
p6122
sS'Karate Kid, The (2010)'
p6123
S'1155076'
p6124
sS'Scarface (1932)'
p6125
S'0023427'
p6126
sS'Hop (2011)'
p6127
S'1411704'
p6128
sS'Reservation Road (2007)'
p6129
S'0831884'
p6130
sS'Transsiberian (2008)'
p6131
S'0800241'
p6132
sS'Mindhunters (2004)'
p6133
S'0297284'
p6134
sS'Catfish (2010)'
p6135
S'1584016'
p6136
sS'Due Date (2010)'
p6137
S'1231583'
p6138
sS'Bad Boys (1983)'
p6139
S'0085210'
p6140
sS'Trouble with the Curve (2012)'
p6141
S'2083383'
p6142
sS'My Son, My Son, What Have Ye Done (2009)'
p6143
S'1233219'
p6144
sS'Grey, The (2012)'
p6145
S'1724804'
p6146
sS'Ides of March, The (2011)'
p6147
S'1124035'
p6148
sS'Bourne Supremacy, The (2004)'
p6149
S'5214036'
p6150
sS'Story of Qiu Ju, The (Qiu Ju da guan si) (1992)'
p6151
S'0105197'
p6152
sS'Starsky & Hutch (2004)'
p6153
S'0335438'
p6154
sS'RKO 281 (1999)'
p6155
S'0120801'
p6156
sS'Meet the Fockers (2004)'
p6157
S'0290002'
p6158
sS'Zelary (2003)'
p6159
S'0288330'
p6160
sS'Chronicles (Cr\xc3\xb3nicas) (2004)'
p6161
S'0296572'
p6162
sS'Son of Rambow (2007)'
p6163
S'0845046'
p6164
sS'Letters to Father Jacob (Postia pappi Jaakobille) (2009)'
p6165
S'1364487'
p6166
sS'Pink Panther 2, The (2009)'
p6167
S'0838232'
p6168
sS"Bon Voyage, Charlie Brown (and Don't Come Back!) (1980)"
p6169
S'0080461'
p6170
sS'Because I Said So (2007)'
p6171
S'0490084'
p6172
sS"Rock 'N' Roll High School (1979)"
p6173
S'0079813'
p6174
sS'Bring Me the Head of Alfredo Garcia (1974)'
p6175
S'0071249'
p6176
sS'Butterfly on a Wheel (Shattered) (2007)'
p6177
S'0489664'
p6178
sS'Secret Life of Walter Mitty, The (2013)'
p6179
S'0359950'
p6180
sS'Scream 4 (2011)'
p6181
S'1262416'
p6182
sS'Quiet Earth, The (1985)'
p6183
S'0089869'
p6184
sS'Winter Passing (2005)'
p6185
S'0380817'
p6186
sS'Five-Year Engagement, The (2012)'
p6187
S'1195478'
p6188
sS'Secret Life of Words, The (2005)'
p6189
S'0430576'
p6190
sS'Turning Point, The (1977)'
p6191
S'1562900'
p6192
sS'Whatever Works (2009)'
p6193
S'1178663'
p6194
sS'Trespass (1992)'
p6195
S'0105636'
p6196
sS'Under the Cherry Moon (1986)'
p6197
S'0092133'
p6198
sS'Stepfather, The (2009)'
p6199
S'0814335'
p6200
sS'"Great Performances" Cats (1998)'
p6201
S'0173714'
p6202
sS'Twister (1990)'
p6203
S'0977439'
p6204
sS'Unprecedented: The 2000 Presidential Election (2002)'
p6205
S'0346091'
p6206
sS'Red Cliff Part II (Chi Bi Xia: Jue Zhan Tian Xia) (2009)'
p6207
S'1326972'
p6208
sS'You Only Live Twice (1967)'
p6209
S'0062512'
p6210
sS'American Carol, An (2008)'
p6211
S'1190617'
p6212
sS'Mother, The (2003)'
p6213
S'0391459'
p6214
sS'Stepford Wives, The (2004)'
p6215
S'0327162'
p6216
sS'Evangelion: 1.0 You Are (Not) Alone (Evangerion shin gekij\xc3\xb4ban: Jo) (2007)'
p6217
S'0923811'
p6218
sS'Audition (\xc3\x94dishon) (1999)'
p6219
S'0235198'
p6220
sS"Outfoxed: Rupert Murdoch's War on Journalism (2004)"
p6221
S'0418038'
p6222
sS'Lionheart (1990)'
p6223
S'0100029'
p6224
sS'Train, The (1964)'
p6225
S'0059825'
p6226
sS'Changeling (2008)'
p6227
S'0824747'
p6228
sS'Sounder (1972)'
p6229
S'0069303'
p6230
sS'Waste Land (2010)'
p6231
S'1268204'
p6232
sS'Afro Samurai: Resurrection (2009)'
p6233
S'1265998'
p6234
sS'Astro Boy (2009)'
p6235
S'0375568'
p6236
sS'Lapland Odyssey (Napapiirin sankarit) (2010)'
p6237
S'1454505'
p6238
sS'Chimes at Midnight (Campanadas a medianoche) (1965)'
p6239
S'0059012'
p6240
sS'Power of One, The (1992)'
p6241
S'0382918'
p6242
sS'Private Life of Henry VIII, The (1933)'
p6243
S'0024473'
p6244
sS'Seraphim Falls (2006)'
p6245
S'0479537'
p6246
sS'Crossing Over (2009)'
p6247
S'0924129'
p6248
sS'London (2005)'
p6249
S'0449061'
p6250
sS'Nacho Libre (2006)'
p6251
S'0457510'
p6252
sS'Ghost Town (2008)'
p6253
S'0995039'
p6254
sS'Hall Pass (2011)'
p6255
S'0480687'
p6256
sS'Four Musketeers, The (1974)'
p6257
S'0073012'
p6258
sS'Talk to Me (2007)'
p6259
S'0796368'
p6260
sS'Adventureland (2009)'
p6261
S'1091722'
p6262
sS'Carrie (2013)'
p6263
S'1939659'
p6264
sS'Captain Phillips (2013)'
p6265
S'1535109'
p6266
sS'Solomon Kane (2009)'
p6267
S'0970452'
p6268
sS'Departures (Okuribito) (2008)'
p6269
S'1069238'
p6270
sS'Year One (2009)'
p6271
S'1045778'
p6272
sS'Green Lantern: First Flight (2009)'
p6273
S'1384590'
p6274
sS'Mayor of the Sunset Strip (2003)'
p6275
S'0230512'
p6276
sS'Moolaad\xc3\xa9 (2004)'
p6277
S'0416991'
p6278
sS'Big Year, The (2011)'
p6279
S'1053810'
p6280
sS'Protocol (1984)'
p6281
S'0087951'
p6282
sS'Alexander Nevsky (Aleksandr Nevskiy) (1938)'
p6283
S'0029850'
p6284
sS'Bobby (2006)'
p6285
S'0308055'
p6286
sS'Devil (2010)'
p6287
S'1314655'
p6288
sS'Pontypool (2008)'
p6289
S'1226681'
p6290
sS'Death Race (2008)'
p6291
S'0452608'
p6292
sS'Cinderfella (1960)'
p6293
S'0053716'
p6294
sS'Our Man in Havana (1959)'
p6295
S'0054152'
p6296
sS'Cromwell (1970)'
p6297
S'0065593'
p6298
sS"It's Kind of a Funny Story (2010)"
p6299
S'0804497'
p6300
sS'Gainsbourg (Vie H\xc3\xa9ro\xc3\xafque) (2010)'
p6301
S'5275166'
p6302
sS'Footlight Parade (1933)'
p6303
S'0024028'
p6304
sS'Because of Winn-Dixie (2005)'
p6305
S'0317132'
p6306
sS'Prom Night (2008)'
p6307
S'0926129'
p6308
sS'Life of Pi (2012)'
p6309
S'0454876'
p6310
sS'Ox-Bow Incident, The (1943)'
p6311
S'0036244'
p6312
sS'Losers, The (2010)'
p6313
S'0480255'
p6314
sS'Car 54, Where Are You? (1994)'
p6315
S'0109376'
p6316
sS'Campaign, The (2012)'
p6317
S'2418210'
p6318
sS'Taken 2 (2012)'
p6319
S'1397280'
p6320
sS'Gidget (1959)'
p6321
S'0052847'
p6322
sS'Richard III (1955)'
p6323
S'0049674'
p6324
sS'Mamma Roma (1962)'
p6325
S'0056215'
p6326
sS'My Life in Ruins (2009)'
p6327
S'0865559'
p6328
sS'Hitch (2005)'
p6329
S'0386588'
p6330
sS'Waist Deep (2006)'
p6331
S'0456020'
p6332
sS'Last Life in the Universe (Ruang rak noi nid mahasan) (2003)'
p6333
S'0345549'
p6334
sS'I Served the King of England (Obsluhoval jsem anglick\xc3\xa9ho kr\xc3\xa1le) (2006)'
p6335
S'0284363'
p6336
sS'Notebook, The (2004)'
p6337
S'0332280'
p6338
sS'Ladykillers, The (2004)'
p6339
S'0335245'
p6340
sS'Orca: The Killer Whale (1977)'
p6341
S'0076504'
p6342
sS'I, Robot (2004)'
p6343
S'0343818'
p6344
sS'Big Stan (2007)'
p6345
S'0490086'
p6346
sS'Wuthering Heights (1939)'
p6347
S'0032145'
p6348
sS'Good Hair (2009)'
p6349
S'1213585'
p6350
sS'Did You Hear About the Morgans? (2009)'
p6351
S'1314228'
p6352
sS'Piranha (Piranha 3D) (2010)'
p6353
S'0464154'
p6354
sS'Hostel (2005)'
p6355
S'0450278'
p6356
sS'Cincinnati Kid, The (1965)'
p6357
S'0059037'
p6358
sS'Mr. 3000 (2004)'
p6359
S'0339412'
p6360
sS'Savages (2012)'
p6361
S'1615065'
p6362
sS'Patlabor: The Movie (Kid\xc3\xb4 keisatsu patoreb\xc3\xa2: The Movie) (1989)'
p6363
S'0100339'
p6364
sS'Dear Zachary: A Letter to a Son About His Father (2008)'
p6365
S'1152758'
p6366
sS'Surrogates (2009)'
p6367
S'0986263'
p6368
sS'Street Kings (2008)'
p6369
S'0421073'
p6370
sS'Dark Water (Honogurai mizu no soko kara) (2002)'
p6371
S'0308379'
p6372
sS'Terror, The (1963)'
p6373
S'5178508'
p6374
sS'Helvetica (2007)'
p6375
S'0847817'
p6376
sS'Trance (2013)'
p6377
S'1924429'
p6378
sS'Batman: Year One (2011)'
p6379
S'1672723'
p6380
sS'Ponyo (Gake no ue no Ponyo) (2008)'
p6381
S'0876563'
p6382
sS'Contagion (2011)'
p6383
S'1598778'
p6384
sS'Rabbit Hole (2010)'
p6385
S'0935075'
p6386
sS'Touching the Void (2003)'
p6387
S'0379557'
p6388
sS'Europa Report (2013)'
p6389
S'2051879'
p6390
sS'Secret Honor (1984)'
p6391
S'0088074'
p6392
sS'Guard, The (2011)'
p6393
S'1540133'
p6394
sS'Resident Evil: Apocalypse (2004)'
p6395
S'0318627'
p6396
sS'Dark Days (2000)'
p6397
S'0235327'
p6398
sS'Max Payne (2008)'
p6399
S'0467197'
p6400
sS'Katsastus (1988)'
p6401
S'0195855'
p6402
sS'Hearts of Darkness: A Filmmakers Apocalypse (1991)'
p6403
S'0102015'
p6404
sS'35 Up (1991)'
p6405
S'0101254'
p6406
sS'Bangkok Dangerous (2008)'
p6407
S'0814022'
p6408
sS'Festival Express (2003)'
p6409
S'0372279'
p6410
sS'Bitch Slap (2009)'
p6411
S'1212974'
p6412
sS'Christmas Carol, A (2009)'
p6413
S'1067106'
p6414
sS'Pusher (1996)'
p6415
S'0117407'
p6416
sS"Diary of a Country Priest (Journal d'un cur\xc3\xa9 de campagne) (1951)"
p6417
S'0042619'
p6418
sS'Hobo with a Shotgun (2011)'
p6419
S'1640459'
p6420
sS'Things to Come (1936)'
p6421
S'0028358'
p6422
sS'Pitch Perfect (2012)'
p6423
S'1981677'
p6424
sS'Go West (1940)'
p6425
S'0032536'
p6426
sS'Oblivion (2013)'
p6427
S'1483013'
p6428
sS'From the Earth to the Moon (1998)'
p6429
S'0120570'
p6430
sS'Annapolis (2006)'
p6431
S'0417433'
p6432
sS"I've Loved You So Long (Il y a longtemps que je t'aime) (2008)"
p6433
S'1068649'
p6434
sS'Mysterious Skin (2004)'
p6435
S'0370986'
p6436
sS'Please Give (2010)'
p6437
S'0878835'
p6438
sS'Human Centipede II (Full Sequence), The (2011)'
p6439
S'1530509'
p6440
sS'All About Steve (2009)'
p6441
S'0881891'
p6442
sS'Puncture (2011)'
p6443
S'1582248'
p6444
sS'Twilight Saga: New Moon, The (2009)'
p6445
S'1259571'
p6446
sS'White Heat (1949)'
p6447
S'0042041'
p6448
sS'Flim-Flam Man, The (1967)'
p6449
S'0061678'
p6450
sS'3-Iron (Bin-jip) (2004)'
p6451
S'0423866'
p6452
sS'Bucket List, The (2007)'
p6453
S'0825232'
p6454
sS'Hannibal Rising (2007)'
p6455
S'0367959'
p6456
sS'Babylon A.D. (2008)'
p6457
S'0364970'
p6458
sS'Brothers (2009)'
p6459
S'0765010'
p6460
sS'Naked City, The (1948)'
p6461
S'0040636'
p6462
sS'Tin Star, The (1957)'
p6463
S'0051087'
p6464
sS'Inland Empire (2006)'
p6465
S'0460829'
p6466
sS'Transporter 3 (2008)'
p6467
S'1129442'
p6468
sS'Rocket Science (2007)'
p6469
S'0477078'
p6470
sS'It (1927)'
p6471
S'0018033'
p6472
sS'American: The Bill Hicks Story (2009)'
p6473
S'1179947'
p6474
sS'Flying Leathernecks, The (1951)'
p6475
S'0043547'
p6476
sS'Harold and Kumar Go to White Castle (2004)'
p6477
S'0366551'
p6478
sS'Express, The (2008)'
p6479
S'0910936'
p6480
sS'Conan the Barbarian (2011)'
p6481
S'0816462'
p6482
sS'Ugly Truth, The (2009)'
p6483
S'2396729'
p6484
sS'Boy (2010)'
p6485
S'1560139'
p6486
sS'Whisper of the Heart (Mimi wo sumaseba) (1995)'
p6487
S'0113824'
p6488
sS'Girl with the Dragon Tattoo, The (2011)'
p6489
S'1568346'
p6490
sS'Sunshine Boys, The (1975)'
p6491
S'0073766'
p6492
sS'Sin City (2005)'
p6493
S'0401792'
p6494
sS'Good Morning (Ohay\xc3\xb4) (1959)'
p6495
S'0053134'
p6496
sS'Midnight in Paris (2011)'
p6497
S'1605783'
p6498
sS"22 Bullets (L'immortel) (2010)"
p6499
S'1167638'
p6500
sS'Fair Game (2010)'
p6501
S'0977855'
p6502
sS'Alice in Wonderland (2010)'
p6503
S'1014759'
p6504
sS'Black Christmas (2006)'
p6505
S'0454082'
p6506
sS'Time (Shi gan) (2006)'
p6507
S'0497986'
p6508
sS'Let Me In (2010)'
p6509
S'1228987'
p6510
sS'Three Musketeers, The (2011)'
p6511
S'0232399'
p6512
sS'White Countess, The (2005)'
p6513
S'0384686'
p6514
sS'This Gun for Hire (1942)'
p6515
S'0035432'
p6516
sS'Neon Genesis Evangelion: The End of Evangelion (Shin seiki Evangelion Gekij\xc3\xb4-ban: Air/Magokoro wo, kimi ni) (1997)'
p6517
S'0169858'
p6518
sS'Catwoman (2004)'
p6519
S'0327554'
p6520
sS'Baby Doll (1956)'
p6521
S'0048973'
p6522
sS'Bridge, The (2006)'
p6523
S'0799954'
p6524
sS'Science of Sleep, The (La science des r\xc3\xaaves) (2006)'
p6525
S'0354899'
p6526
sS'Julius Caesar (1953)'
p6527
S'0045943'
p6528
sS'Brigadoon (1954)'
p6529
S'0046807'
p6530
sS'9 (2009)'
p6531
S'0472033'
p6532
sS'Eulogy (2004)'
p6533
S'0349416'
p6534
sS'Spartan (2004)'
p6535
S'0360009'
p6536
sS'Kingdom, The (Riget) (1994)'
p6537
S'0108906'
p6538
sS'State of Play (2009)'
p6539
S'0473705'
p6540
sS'One for the Money (2012)'
p6541
S'1598828'
p6542
sS'Memories (Memor\xc3\xaezu) (1995)'
p6543
S'0113799'
p6544
sS'Rio (2011)'
p6545
S'1436562'
p6546
sS'Beyond Re-Animator (2003)'
p6547
S'0222812'
p6548
sS'Holy Motors (2012)'
p6549
S'2076220'
p6550
sS'Norte, El (1984)'
p6551
S'0088133'
p6552
sS'Kaena: The Prophecy (Kaena: La proph\xc3\xa9tie) (2003)'
p6553
S'0297753'
p6554
sS'Animal Factory (2000)'
p6555
S'0204137'
p6556
sS'Edge of Love, The (2008)'
p6557
S'0819714'
p6558
sS'Cabin in the Woods, The (2012)'
p6559
S'1259521'
p6560
sS'Best Exotic Marigold Hotel, The (2011)'
p6561
S'1412386'
p6562
sS'Honey (2003)'
p6563
S'0322589'
p6564
sS'I Am Dina (2002)'
p6565
S'0281924'
p6566
sS'Nothing But the Truth (2008)'
p6567
S'1073241'
p6568
sS'Orphanage, The (Orfanato, El) (2007)'
p6569
S'0464141'
p6570
sS'Thursday (1998)'
p6571
S'0124901'
p6572
sS'Explorers (1985)'
p6573
S'0089114'
p6574
sS'Notorious C.H.O. (2002)'
p6575
S'0300274'
p6576
sS'Idiocracy (2006)'
p6577
S'0387808'
p6578
sS'Paparazzi (2004)'
p6579
S'0338325'
p6580
sS'Taxidermia (2006)'
p6581
S'0410730'
p6582
sS'Laws of Attraction (2004)'
p6583
S'0323033'
p6584
sS'56 Up (2012)'
p6585
S'2147134'
p6586
sS'Beerfest (2006)'
p6587
S'0486551'
p6588
sS"Rory O'Shea Was Here (Inside I'm Dancing) (2004)"
p6589
S'0417791'
p6590
sS'Brokeback Mountain (2005)'
p6591
S'0388795'
p6592
sS'Ondine (2009)'
p6593
S'1235796'
p6594
sS'Polar Express, The (2004)'
p6595
S'0338348'
p6596
sS'Jesus Camp (2006)'
p6597
S'0486358'
p6598
sS'Jackass 3D (2010)'
p6599
S'1116184'
p6600
sS'Guilt Trip, The (2012)'
p6601
S'1694020'
p6602
sS'Wild, The (2006)'
p6603
S'0463985'
p6604
sS'Despicable Me (2010)'
p6605
S'1323594'
p6606
sS'Inkheart (2008)'
p6607
S'0494238'
p6608
sS"You Don't Mess with the Zohan (2008)"
p6609
S'0960144'
p6610
sS'Red (2010)'
p6611
S'1245526'
p6612
sS'Shiri (Swiri) (1999)'
p6613
S'0192657'
p6614
sS'District 13: Ultimatum (Banlieue 13 - Ultimatum) (2009)'
p6615
S'1247640'
p6616
sS'My Super Ex-Girlfriend (2006)'
p6617
S'0465624'
p6618
sS'Rocco and His Brothers (Rocco e i suoi fratelli) (1960)'
p6619
S'0054248'
p6620
sS'Fire Birds (1990)'
p6621
S'0099575'
p6622
sS'Country Strong (2010)'
p6623
S'1555064'
p6624
sS'Descendants, The (2011)'
p6625
S'1033575'
p6626
sS'Platinum Blonde (1931)'
p6627
S'0022268'
p6628
sS'Monsieur Ibrahim (Monsieur Ibrahim et les fleurs du Coran) (2003)'
p6629
S'0329388'
p6630
sS'Brothers Solomon, The (2007)'
p6631
S'1112431'
p6632
sS'Lust, Caution (Se, jie) (2007)'
p6633
S'0808357'
p6634
sS'In China They Eat Dogs (I Kina spiser de hunde) (1999)'
p6635
S'0180748'
p6636
sS"Adam's Apples (Adams \xc3\xa6bler) (2005)"
p6637
S'0418455'
p6638
sS'Red Riding: 1980 (2009)'
p6639
S'1260581'
p6640
sS'Beyond the Valley of the Dolls (1970)'
p6641
S'0065466'
p6642
sS'Bounty Hunter, The (2010)'
p6643
S'6051146'
p6644
sS'Darjeeling Limited, The (2007)'
p6645
S'0838221'
p6646
sS'Movie 43 (2013)'
p6647
S'1333125'
p6648
sS'Resident Evil: Extinction (2007)'
p6649
S'0432021'
p6650
sS'Wicker Man, The (2006)'
p6651
S'0450345'
p6652
sS'Blame It on the Bellboy (1992)'
p6653
S'0103827'
p6654
sS'Darkest Hour, The (2011)'
p6655
S'1093357'
p6656
sS'Vanity Fair (2004)'
p6657
S'0241025'
p6658
sS'Christmas Carol, A (Scrooge) (1951)'
p6659
S'0230744'
p6660
sS'Wild One, The (1953)'
p6661
S'0047677'
p6662
sS'Lone Wolf and Cub: Baby Cart to Hades (Kozure \xc3\x94kami: Shinikazeni mukau ubaguruma) (1972)'
p6663
S'0068817'
p6664
sS'11\'09"01 - September 11 (2002)'
p6665
S'0328802'
p6666
sS'Hardcore (1979)'
p6667
S'0079271'
p6668
sS'Guide to Recognizing Your Saints, A (2006)'
p6669
S'0473488'
p6670
sS'Public Enemies (2009)'
p6671
S'1152836'
p6672
sS'Big Clock, The (1948)'
p6673
S'0040160'
p6674
sS'Superbad (2007)'
p6675
S'0829482'
p6676
sS'College (2008)'
p6677
S'0844671'
p6678
sS'Waitress (2007)'
p6679
S'0473308'
p6680
sS'Zombie Strippers! (2008)'
p6681
S'0960890'
p6682
sS'City of Men (Cidade dos Homens) (2007)'
p6683
S'0870090'
p6684
sS'Mission: Impossible III (2006)'
p6685
S'0317919'
p6686
sS'Armored (2009)'
p6687
S'0913354'
p6688
sS'Best of Youth, The (La meglio giovent\xc3\xb9) (2003)'
p6689
S'0346336'
p6690
sS'Ship of Fools (1965)'
p6691
S'0059712'
p6692
sS'Mutiny on the Bounty (1962)'
p6693
S'0056264'
p6694
sS'Babylon 5: The Lost Tales - Voices in the Dark (2007)'
p6695
S'0871427'
p6696
sS'And When Did You Last See Your Father? (2007)'
p6697
S'0829098'
p6698
sS'36th Chamber of Shaolin, The (Shao Lin san shi liu fang) (Master Killer) (1978)'
p6699
S'0078243'
p6700
sS'Saints and Soldiers (2003)'
p6701
S'0373283'
p6702
sS'Hollywoodland (2006)'
p6703
S'0427969'
p6704
sS'Passengers (2008)'
p6705
S'0449487'
p6706
sS'Number 23, The (2007)'
p6707
S'0481369'
p6708
sS'Man in the Iron Mask, The (1939)'
p6709
S'0031619'
p6710
sS'Halloween II (2009)'
p6711
S'1311067'
p6712
sS'Dawn of the Dead (2004)'
p6713
S'0363547'
p6714
sS'Day of the Dead (2008)'
p6715
S'0489018'
p6716
sS'Yes Man (2008)'
p6717
S'1068680'
p6718
sS'Break-Up, The (2006)'
p6719
S'0926026'
p6720
sS'Shadow of the Thin Man (1941)'
p6721
S'0034172'
p6722
sS'D-War (Dragon Wars) (2007)'
p6723
S'0372873'
p6724
sS'Conversations with Other Women (2005)'
p6725
S'0435623'
p6726
sS'Faster (2010)'
p6727
S'1433108'
p6728
sS'Taxi 3 (2003)'
p6729
S'0295721'
p6730
sS'Fighter, The (2010)'
p6731
S'1211798'
p6732
sS'Junebug (2005)'
p6733
S'0418773'
p6734
sS'Dr. Jekyll and Ms. Hyde (1995)'
p6735
S'0112895'
p6736
sS'Ginger Snaps Back: The Beginning (2004)'
p6737
S'0365265'
p6738
sS'Blackboard Jungle (1955)'
p6739
S'0047885'
p6740
sS'Freedom Writers (2007)'
p6741
S'0463998'
p6742
sS'Home on the Range (2004)'
p6743
S'0299172'
p6744
sS'800 Bullets (800 Balas) (2002)'
p6745
S'0292886'
p6746
sS'Adam (2009)'
p6747
S'1185836'
p6748
sS'Inside Job (2010)'
p6749
S'1645089'
p6750
sS'Sherlock Jr. (1924)'
p6751
S'0015324'
p6752
sS'Restless (Levottomat) (2000)'
p6753
S'0231971'
p6754
sS'Little Miss Sunshine (2006)'
p6755
S'0449059'
p6756
sS'Cargo (2009)'
p6757
S'0381940'
p6758
sS'Like Crazy (2011)'
p6759
S'1758692'
p6760
sS'Guardian, The (2006)'
p6761
S'0406816'
p6762
sS'Dodgeball: A True Underdog Story (2004)'
p6763
S'0364725'
p6764
sS'Highwaymen (2003)'
p6765
S'2000414'
p6766
sS'Descent: Part 2, The (2009)'
p6767
S'1073105'
p6768
sS'New York, New York (1977)'
p6769
S'0076451'
p6770
sS'Undead (2003)'
p6771
S'0339840'
p6772
sS'Samsara (2001)'
p6773
S'0196069'
p6774
sS'King of Kong, The (2007)'
p6775
S'0492337'
p6776
sS'Children of Men (2006)'
p6777
S'0206634'
p6778
sS'Journey 2: The Mysterious Island (2012)'
p6779
S'1397514'
p6780
sS'Mind Game (2004)'
p6781
S'0452039'
p6782
sS'My Flesh and Blood (2003)'
p6783
S'0342804'
p6784
sS'Taxi 2 (2000)'
p6785
S'0183869'
p6786
sS'Holiday, The (2006)'
p6787
S'0457939'
p6788
sS'Blacula (1972)'
p6789
S'0068284'
p6790
sS'Sexmission (Seksmisja) (1984)'
p6791
S'0088083'
p6792
sS"Hitchhiker's Guide to the Galaxy, The (2005)"
p6793
S'0371724'
p6794
sS'Revenge of the Pink Panther (1978)'
p6795
S'0078163'
p6796
sS'Killers (2010)'
p6797
S'1103153'
p6798
sS'Superhero Movie (2008)'
p6799
S'0426592'
p6800
sS'In the Land of Women (2007)'
p6801
S'0419843'
p6802
sS'X-Men Origins: Wolverine (2009)'
p6803
S'0458525'
p6804
sS'Paranormal Activity 2 (2010)'
p6805
S'1536044'
p6806
sS'We Own the Night (2007)'
p6807
S'0498399'
p6808
sS'Dirty Dancing: Havana Nights (2004)'
p6809
S'0338096'
p6810
sS'Penelope (2006)'
p6811
S'0472160'
p6812
sS'Synecdoche, New York (2008)'
p6813
S'0383028'
p6814
sS'Debt, The (2011)'
p6815
S'1630061'
p6816
sS'Hope Springs (2003)'
p6817
S'0314431'
p6818
sS'Separate Lies (2005)'
p6819
S'0369053'
p6820
sS'Edge of Darkness (2010)'
p6821
S'1226273'
p6822
sS'Happiness of the Katakuris, The (Katakuri-ke no k\xc3\xb4fuku) (2001)'
p6823
S'0304262'
p6824
sS'Troll 2 (1990)'
p6825
S'0105643'
p6826
sS'Moustache, La (2005)'
p6827
S'0428856'
p6828
sS'Tae Guk Gi: The Brotherhood of War (Taegukgi hwinalrimyeo) (2004)'
p6829
S'0386064'
p6830
sS'Blindness (2008)'
p6831
S'0861689'
p6832
sS'Horton Hears a Who! (2008)'
p6833
S'0451079'
p6834
sS'Soul Surfer (2011)'
p6835
S'1596346'
p6836
sS'Under the Same Moon (Misma luna, La) (2007)'
p6837
S'0796307'
p6838
sS'Zookeeper (2011)'
p6839
S'1222817'
p6840
sS'Wuthering Heights (1992)'
p6841
S'0104181'
p6842
sS'Nines, The (2007)'
p6843
S'0810988'
p6844
sS'Freakonomics (2010)'
p6845
S'1152822'
p6846
sS'Alexander the Great (1956)'
p6847
S'0048937'
p6848
sS'Ella Enchanted (2004)'
p6849
S'0327679'
p6850
sS'Sting II, The (1983)'
p6851
S'0086370'
p6852
sS'Encounters at the End of the World (2008)'
p6853
S'1093824'
p6854
sS'Harper (1966)'
p6855
S'0060490'
p6856
sS"Madagascar 3: Europe's Most Wanted (2012)"
p6857
S'1277953'
p6858
sS'Divo, Il (2008)'
p6859
S'1023490'
p6860
sS'Man on Fire (2004)'
p6861
S'0328107'
p6862
sS'Time of the Wolf, The (Le temps du loup) (2003)'
p6863
S'0324197'
p6864
sS'Hunting Party, The (2007)'
p6865
S'0455782'
p6866
sS'Bug (2007)'
p6867
S'2100202'
p6868
sS'Look Both Ways (2005)'
p6869
S'0382806'
p6870
sS'Herr Lehmann (2003)'
p6871
S'4242742'
p6872
sS'Separation, A (Jodaeiye Nader az Simin) (2011)'
p6873
S'1832382'
p6874
sS"When You're Strange (2009)"
p6875
S'1333667'
p6876
sS'Enough Said (2013)'
p6877
S'2390361'
p6878
sS'50 First Dates (2004)'
p6879
S'0343660'
p6880
sS'Fat Albert (2004)'
p6881
S'0396592'
p6882
sS'Waking Sleeping Beauty (2009)'
p6883
S'1159961'
p6884
sS'Brave (2012)'
p6885
S'1217209'
p6886
sS'Ghost Writer, The (2010)'
p6887
S'0716963'
p6888
sS'Kung Fu Hustle (Gong fu) (2004)'
p6889
S'0373074'
p6890
sS'Door in the Floor, The (2004)'
p6891
S'0348593'
p6892
sS'Messenger, The (2009)'
p6893
S'0151137'
p6894
sS'Night of the Iguana, The (1964)'
p6895
S'0058404'
p6896
sS'Code 46 (2003)'
p6897
S'0345061'
p6898
sS'Summer with Monika (Sommaren med Monika) (1953)'
p6899
S'0046345'
p6900
sS'Eight Below (2006)'
p6901
S'0397313'
p6902
sS'Twilight Saga: Eclipse, The (2010)'
p6903
S'1325004'
p6904
sS'Shock to the System, A (1990)'
p6905
S'0100602'
p6906
sS'Teeth (2007)'
p6907
S'0780622'
p6908
sS'Henry V (Chronicle History of King Henry the Fift with His Battell Fought at Agincourt in France, The) (1944)'
p6909
S'0036910'
p6910
sS'Hangover Part III, The (2013)'
p6911
S'1951261'
p6912
sS'Chaser, The (Chugyeogja) (2008)'
p6913
S'1190539'
p6914
sS'Stomp the Yard (2007)'
p6915
S'0775539'
p6916
sS'Caine Mutiny, The (1954)'
p6917
S'0046816'
p6918
sS'Hysteria (2011)'
p6919
S'1435513'
p6920
sS'Dahmer (2002)'
p6921
S'0285728'
p6922
sS'Silent Movie (1976)'
p6923
S'0075222'
p6924
sS'Girl with the Dragon Tattoo, The (M\xc3\xa4n som hatar kvinnor) (2009)'
p6925
S'1132620'
p6926
sS'Revolver (2005)'
p6927
S'0365686'
p6928
sS'Casino Jack (2010)'
p6929
S'1194417'
p6930
sS'Phantom of the Opera, The (1989)'
p6931
S'6275704'
p6932
sS'Arthur Christmas (2011)'
p6933
S'1430607'
p6934
sS'Transformers (2007)'
p6935
S'0418279'
p6936
sS'Social Network, The (2010)'
p6937
S'1743975'
p6938
sS'Jack the Bear (1993)'
p6939
S'0107247'
p6940
sS'Heartbreak Kid, The (2007)'
p6941
S'5290692'
p6942
sS"I'm with Lucy (2002)"
p6943
S'0282593'
p6944
sS'Four Brothers (2005)'
p6945
S'0430105'
p6946
sS'Performance (1970)'
p6947
S'0066214'
p6948
sS'Camp Rock (2008)'
p6949
S'1055366'
p6950
sS'Friday the 13th (2009)'
p6951
S'0758746'
p6952
sS'Smile (1975)'
p6953
S'0073722'
p6954
sS'Japanese Story (2003)'
p6955
S'0304229'
p6956
sS'Citizen X (1995)'
p6957
S'0112681'
p6958
sS'Club Paradise (1986)'
p6959
S'0090856'
p6960
sS'Hard to Kill (1990)'
p6961
S'0099739'
p6962
sS'Internal Affairs (1990)'
p6963
S'0099850'
p6964
sS'Trailer Park Boys: The Movie (2006)'
p6965
S'0425601'
p6966
sS'Concert, Le (2009)'
p6967
S'1320082'
p6968
sS'Shutter (2004)'
p6969
S'0440803'
p6970
sS'10th Kingdom, The (2000)'
p6971
S'0231059'
p6972
sS'Hereafter (2010)'
p6973
S'1212419'
p6974
sS'Mona Lisa Smile (2003)'
p6975
S'0304415'
p6976
sS'Kingdom, The (2007)'
p6977
S'0431197'
p6978
sS'Skin I Live In, The (La piel que habito) (2011)'
p6979
S'1189073'
p6980
sS'Nanook of the North (1922)'
p6981
S'0013427'
p6982
sS'41-Year-Old Virgin Who Knocked Up Sarah Marshall and Felt Superbad About It, The (2010)'
p6983
S'1498870'
p6984
sS'Troy (2004)'
p6985
S'0332452'
p6986
sS'Enter the Void (2009)'
p6987
S'1191111'
p6988
sS'Date Night (2010)'
p6989
S'1279935'
p6990
sS'Roman Polanski: Wanted and Desired (2008)'
p6991
S'1157705'
p6992
sS'Russian Dolls (Les poup\xc3\xa9es russes) (2005)'
p6993
S'0409184'
p6994
sS'Courageous (2011)'
p6995
S'1630036'
p6996
sS'Seven Up! (1964)'
p6997
S'0058578'
p6998
sS'Wolf of Wall Street, The (2013)'
p6999
S'3439080'
p7000
sS'Fearless Vampire Killers, The (1967)'
p7001
S'0061655'
p7002
sS'16 Blocks (2006)'
p7003
S'0450232'
p7004
sS'Flawless (2007)'
p7005
S'0780516'
p7006
sS'Devils, The (1971)'
p7007
S'0066993'
p7008
sS'Sympathy for Mr. Vengeance (Boksuneun naui geot) (2002)'
p7009
S'0310775'
p7010
sS'Dear Wendy (2005)'
p7011
S'0447658'
p7012
sS'$9.99 (2008)'
p7013
S'0790799'
p7014
sS'South Park: Imaginationland (2008)'
p7015
S'1308667'
p7016
sS'42 (2013)'
p7017
S'0453562'
p7018
sS'Miracle (2004)'
p7019
S'0349825'
p7020
sS'P.S. (2004)'
p7021
S'0380609'
p7022
sS'Gone Baby Gone (2007)'
p7023
S'0452623'
p7024
sS'Ghost Dad (1990)'
p7025
S'0099654'
p7026
sS'Valiant (2005)'
p7027
S'0361089'
p7028
sS'Your Highness (2011)'
p7029
S'1240982'
p7030
sS'Inglorious Bastards (Quel maledetto treno blindato) (1978)'
p7031
S'1028564'
p7032
sS'Iceman (1984)'
p7033
S'0087452'
p7034
sS'Port of Shadows (Quai des brumes) (1938)'
p7035
S'0030643'
p7036
sS'Box, The (2009)'
p7037
S'0362478'
p7038
sS'Aliens in the Attic (2009)'
p7039
S'0775552'
p7040
sS'Frances Ha (2012)'
p7041
S'2347569'
p7042
sS'Twilight Samurai, The (Tasogare Seibei) (2002)'
p7043
S'0351817'
p7044
sS'Youth Without Youth (2007)'
p7045
S'0481797'
p7046
sS'Forbidden Kingdom, The (2008)'
p7047
S'0865556'
p7048
sS'Brave One, The (2007)'
p7049
S'0476964'
p7050
sS'Star Wars: Episode III - Revenge of the Sith (2005)'
p7051
S'0121766'
p7052
sS'Liberal Arts (2012)'
p7053
S'1872818'
p7054
sS'House of D (2004)'
p7055
S'0372334'
p7056
sS'D.C. Cab (1983)'
p7057
S'0085387'
p7058
sS'American Crime, An (2007)'
p7059
S'5613016'
p7060
sS'Foreign Affair, A (1948)'
p7061
S'0040367'
p7062
sS'Mis\xc3\xa9rables, Les (2012)'
p7063
S'1707386'
p7064
sS'Getaway, The (1972)'
p7065
S'0068638'
p7066
sS'Saraband (2003)'
p7067
S'0299478'
p7068
sS'Saw VII 3D - The Final Chapter (2010)'
p7069
S'1477076'
p7070
sS'Obsessed (2009)'
p7071
S'1198138'
p7072
sS'Hangover, The (2009)'
p7073
S'1119646'
p7074
sS'Kenny (2006)'
p7075
S'0822389'
p7076
sS'Squid and the Whale, The (2005)'
p7077
S'0367089'
p7078
sS'Tomorrow, When the War Began (2010)'
p7079
S'1456941'
p7080
sS'Curious George (2006)'
p7081
S'0381971'
p7082
sS'In Hell (2003)'
p7083
S'0339135'
p7084
sS'Merlin (1998)'
p7085
S'0130414'
p7086
sS'Lucky One, The (2012)'
p7087
S'1327194'
p7088
sS'Flash of Genius (2008)'
p7089
S'1054588'
p7090
sS'Clean (2004)'
p7091
S'0388838'
p7092
sS'Sorrow and the Pity, The (Chagrin et la piti\xc3\xa9, Le) (1969)'
p7093
S'0066904'
p7094
sS'Indian Runner, The (1991)'
p7095
S'0102116'
p7096
sS'Tank (1984)'
p7097
S'0088224'
p7098
sS'Infernal Affairs 2 (Mou gaan dou II) (2003)'
p7099
S'0369060'
p7100
sS'Something Borrowed (2011)'
p7101
S'0491152'
p7102
sS'Love and Other Drugs (2010)'
p7103
S'3022594'
p7104
sS'Bad Day at Black Rock (1955)'
p7105
S'0047849'
p7106
sS'Cave, The (2005)'
p7107
S'0402901'
p7108
sS'Upside Down (2012)'
p7109
S'1374992'
p7110
sS'Religulous (2008)'
p7111
S'0815241'
p7112
sS'It Might Get Loud (2008)'
p7113
S'1229360'
p7114
sS'Cosmopolis  (2012)'
p7115
S'1480656'
p7116
sS'300 Spartans, The (1962)'
p7117
S'5608108'
p7118
sS'Sisters (1973)'
p7119
S'2016838'
p7120
sS'American Pie Presents Beta House (American Pie 6: Beta House) (2007)'
p7121
S'3024822'
p7122
sS'Last Train from Gun Hill (1959)'
p7123
S'0052993'
p7124
sS'Woman in the Window, The (1944)'
p7125
S'0037469'
p7126
sS'Lookout, The (2007)'
p7127
S'0427470'
p7128
sS"Dr. Horrible's Sing-Along Blog (2008)"
p7129
S'1227926'
p7130
sS'Theatre of Blood (1973)'
p7131
S'0070791'
p7132
sS'Percy Jackson & the Olympians: The Lightning Thief (2010)'
p7133
S'0814255'
p7134
sS'Front Page, The (1931)'
p7135
S'0021890'
p7136
sS'Doctor, The (1991)'
p7137
S'0101746'
p7138
sS'Odyssey, The (1997)'
p7139
S'0118414'
p7140
sS'Assassination of Richard Nixon, The (2004)'
p7141
S'0364961'
p7142
sS'Ice Age 2: The Meltdown (2006)'
p7143
S'0795398'
p7144
sS'Words, The (2012)'
p7145
S'2262596'
p7146
sS'Point Blank (1967)'
p7147
S'0062138'
p7148
sS'Babylon 5: The Legend of the Rangers: To Live and Die in Starlight (2002)'
p7149
S'0280453'
p7150
sS'Australia (2008)'
p7151
S'0455824'
p7152
sS"It's All About Love (2003)"
p7153
S'0273689'
p7154
sS'Time for Drunken Horses, A (Zamani baray\xc3\xa9 masti asbha) (2000)'
p7155
S'0259072'
p7156
sS'Derailed (2005)'
p7157
S'0398017'
p7158
sS'Beowulf (2007)'
p7159
S'0442933'
p7160
sS'All the Mornings of the World (Tous les matins du monde) (1991)'
p7161
S'0103110'
p7162
sS'Henry & June (1990)'
p7163
S'0099762'
p7164
sS'Monsters University (2013)'
p7165
S'1453405'
p7166
sS'Boys Town (1938)'
p7167
S'0029942'
p7168
sS'Offside (2006)'
p7169
S'0499537'
p7170
sS'I Was a Male War Bride (1949)'
p7171
S'0041498'
p7172
sS'Zack and Miri Make a Porno (2008)'
p7173
S'1007028'
p7174
sS'Martin (1977)'
p7175
S'0475655'
p7176
sS'Funny People (2009)'
p7177
S'1201167'
p7178
sS'Days of Glory (Indig\xc3\xa8nes) (2006)'
p7179
S'0444182'
p7180
sS'What Just Happened (2008)'
p7181
S'0486674'
p7182
sS'Baby Mama (2008)'
p7183
S'0871426'
p7184
sS'Thirty Seconds Over Tokyo (1944)'
p7185
S'0037366'
p7186
sS'Surveillance (2008)'
p7187
S'0409345'
p7188
sS'Rogue (2007)'
p7189
S'0479528'
p7190
sS'Clash of the Titans (2010)'
p7191
S'0800320'
p7192
sS'Cry-Baby (1990)'
p7193
S'0099329'
p7194
sS'Mirror Mirror (2012)'
p7195
S'1667353'
p7196
sS'Rock-A-Doodle (1991)'
p7197
S'0102802'
p7198
s.