(dp0
S'Adventures of Pinocchio, The (1996)'
p1
S'0115472'
p2
sS'Irma la Douce (1963)'
p3
S'0057187'
p4
sS'Birdcage, The (1996)'
p5
S'0115685'
p6
sS'Purple Noon (Plein soleil) (1960)'
p7
S'0054189'
p8
sS'Little Big League (1994)'
p9
S'0110363'
p10
sS'B. Monkey (1998)'
p11
S'0120594'
p12
sS'Country Life (1994)'
p13
S'0109491'
p14
sS'Encino Man (1992)'
p15
S'0104187'
p16
sS'Mortal Kombat (1995)'
p17
S'0113855'
p18
sS"Mummy's Ghost, The (1944)"
p19
S'0037099'
p20
sS'Fanny and Alexander (Fanny och Alexander) (1982)'
p21
S'0083922'
p22
sS'Exorcist, The (1973)'
p23
S'0070047'
p24
sS'Caligula (1979)'
p25
S'0080491'
p26
sS'Sabotage (1936)'
p27
S'0028212'
p28
sS'Shooter, The (1997)'
p29
S'0120121'
p30
sS'Endless Summer 2, The (1994)'
p31
S'6140852'
p32
sS'Halloween H20: 20 Years Later (Halloween 7: The Revenge of Laurie Strode) (1998)'
p33
S'0120694'
p34
sS'Village of the Damned (1995)'
p35
S'0114852'
p36
sS'Ride with the Devil (1999)'
p37
S'0134154'
p38
sS'Careful (1992)'
p39
S'0103926'
p40
sS'Almost Heroes (1998)'
p41
S'0119053'
p42
sS'Air Bud (1997)'
p43
S'0118570'
p44
sS'Monument Ave. (1998)'
p45
S'0119802'
p46
sS'Hot Lead and Cold Feet (1978)'
p47
S'0077698'
p48
sS'Beneath the Planet of the Apes (1970)'
p49
S'0065462'
p50
sS'Mole People, The (1956)'
p51
S'1456789'
p52
sS'Cyclo (Xich lo) (1995)'
p53
S'0112767'
p54
sS'Bye Bye, Love (1995)'
p55
S'0112606'
p56
sS'Twin Peaks: Fire Walk with Me (1992)'
p57
S'0105665'
p58
sS"Mary Shelley's Frankenstein (Frankenstein) (1994)"
p59
S'0109836'
p60
sS'Beautiful Thing (1996)'
p61
S'0115640'
p62
sS'2 Days in the Valley (1996)'
p63
S'0115438'
p64
sS'Jerky Boys, The (1994)'
p65
S'6145980'
p66
sS'Leatherface: Texas Chainsaw Massacre III (1990)'
p67
S'0099994'
p68
sS'Trouble with Harry, The (1955)'
p69
S'0048750'
p70
sS"Relax... It's Just Sex (1998)"
p71
S'0159696'
p72
sS'Deep Impact (1998)'
p73
S'0120647'
p74
sS'Days of Heaven (1978)'
p75
S'0077405'
p76
sS'Frances (1982)'
p77
S'0083967'
p78
sS'Belizaire the Cajun (1986)'
p79
S'0090710'
p80
sS'Home Alone 2: Lost in New York (1992)'
p81
S'0104431'
p82
sS'Mummy, The (1959)'
p83
S'0053085'
p84
sS'Amadeus (1984)'
p85
S'0086879'
p86
sS'Critical Care (1997)'
p87
S'0118901'
p88
sS'Clockwork Orange, A (1971)'
p89
S'0066921'
p90
sS'Snows of Kilimanjaro, The (1952)'
p91
S'0045162'
p92
sS'Resurrection Man (1998)'
p93
S'0140508'
p94
sS'Chairman of the Board (1998)'
p95
S'0118836'
p96
sS'Hell in the Pacific (1968)'
p97
S'0063056'
p98
sS'Pleasantville (1998)'
p99
S'0120789'
p100
sS'Wings of Courage (1995)'
p101
S'0114952'
p102
sS'Ghost Dog: The Way of the Samurai (1999)'
p103
S'0165798'
p104
sS'Goodbye Girl, The (1977)'
p105
S'0076095'
p106
sS'Scent of a Woman (1992)'
p107
S'0105323'
p108
sS'Harvey (1950)'
p109
S'0042546'
p110
sS'Masque of the Red Death, The (1964)'
p111
S'0097844'
p112
sS'Fifth Element, The (1997)'
p113
S'0119116'
p114
sS'Heaven & Earth (1993)'
p115
S'0107096'
p116
sS'Klute (1971)'
p117
S'0067309'
p118
sS'Risky Business (1983)'
p119
S'0086200'
p120
sS'Pet Sematary II (1992)'
p121
S'0105128'
p122
sS'Crimes and Misdemeanors (1989)'
p123
S'0097123'
p124
sS'Clue (1985)'
p125
S'0088930'
p126
sS'Tombstone (1993)'
p127
S'0108358'
p128
sS'Gremlins 2: The New Batch (1990)'
p129
S'0099700'
p130
sS'Jewel of the Nile, The (1985)'
p131
S'0089370'
p132
sS'Adrenalin: Fear the Rush (1996)'
p133
S'0115471'
p134
sS'Lawnmower Man 2: Beyond Cyberspace (1996)'
p135
S'0116839'
p136
sS'American Pie (1999)'
p137
S'0163651'
p138
sS'Omega Code, The (1999)'
p139
S'0203408'
p140
sS"You've Got Mail (1998)"
p141
S'0128853'
p142
sS'Big Daddy (1999)'
p143
S'0142342'
p144
sS'Chill Factor (1999)'
p145
S'0163579'
p146
sS'Of Human Bondage (1934)'
p147
S'0025586'
p148
sS'Queen Margot (Reine Margot, La) (1994)'
p149
S'0110963'
p150
sS"Blood for Dracula (Andy Warhol's Dracula) (1974)"
p151
S'0071233'
p152
sS'Central Station (Central do Brasil) (1998)'
p153
S'0140888'
p154
sS'Saving Private Ryan (1998)'
p155
S'0120815'
p156
sS'Before the Rain (Pred dozhdot) (1994)'
p157
S'0110882'
p158
sS'Best Laid Plans (1999)'
p159
S'0133412'
p160
sS'Fish Called Wanda, A (1988)'
p161
S'0095159'
p162
sS'Hard Core Logo (1996)'
p163
S'0116488'
p164
sS'Deep Rising (1998)'
p165
S'0118956'
p166
sS"Gulliver's Travels (1939)"
p167
S'0031397'
p168
sS'Kids of the Round Table (1995)'
p169
S'0113541'
p170
sS'Cavalcade (1933)'
p171
S'0023876'
p172
sS'Ready to Wear (Pret-A-Porter) (1994)'
p173
S'0110907'
p174
sS'Conspiracy Theory (1997)'
p175
S'0118883'
p176
sS'Man Who Knew Too Little, The (1997)'
p177
S'0120483'
p178
sS'Jefferson in Paris (1995)'
p179
S'0113463'
p180
sS'Mommie Dearest (1981)'
p181
S'0082766'
p182
sS'Dog of Flanders, A (1999)'
p183
S'0160216'
p184
sS'Karate Kid, Part II, The (1986)'
p185
S'0091326'
p186
sS'Tin Men (1987)'
p187
S'0094155'
p188
sS'Angel on My Shoulder (1946)'
p189
S'0038300'
p190
sS'Thousand Acres, A (1997)'
p191
S'0120323'
p192
sS'Herbie Goes to Monte Carlo (1977)'
p193
S'0076137'
p194
sS'Lion King, The (1994)'
p195
S'0110357'
p196
sS'Lotto Land (1995)'
p197
S'0113695'
p198
sS'Belly (1998)'
p199
S'0158493'
p200
sS'Saint, The (1997)'
p201
S'0120053'
p202
sS'One Fine Day (1996)'
p203
S'0117247'
p204
sS'I Love You, I Love You Not (1996)'
p205
S'0116592'
p206
sS'Whole Wide World, The (1996)'
p207
S'6173150'
p208
sS'Computer Wore Tennis Shoes, The (1969)'
p209
S'0065566'
p210
sS'Truth About Cats & Dogs, The (1996)'
p211
S'0117979'
p212
sS'Fly Away Home (1996)'
p213
S'0116329'
p214
sS'Absolute Power (1997)'
p215
S'0118548'
p216
sS'Carried Away (1996)'
p217
S'0115837'
p218
sS'Cat on a Hot Tin Roof (1958)'
p219
S'0051459'
p220
sS'Mallrats (1995)'
p221
S'0113749'
p222
sS'Two Deaths (1995)'
p223
S'0117999'
p224
sS'Sprung (1997)'
p225
S'0120190'
p226
sS'Meatballs (1979)'
p227
S'0079540'
p228
sS'Mrs. Parker and the Vicious Circle (1994)'
p229
S'0110588'
p230
sS'Grand Canyon (1991)'
p231
S'0101969'
p232
sS'Armageddon (1998)'
p233
S'0120591'
p234
sS'If Lucy Fell (1996)'
p235
S'0116606'
p236
sS'White Balloon, The (Badkonake sefid) (1995)'
p237
S'0112445'
p238
sS'River, The (1984)'
p239
S'5248478'
p240
sS"Billy's Hollywood Screen Kiss (1997)"
p241
S'0137386'
p242
sS'Cry, the Beloved Country (1995)'
p243
S'0112749'
p244
sS'8 Seconds (1994)'
p245
S'0109021'
p246
sS'Miracle on 34th Street (1994)'
p247
S'0110527'
p248
sS'Wild Things (1998)'
p249
S'0120890'
p250
sS'Last Detail, The (1973)'
p251
S'0070290'
p252
sS'Stealing Beauty (1996)'
p253
S'0117737'
p254
sS'Haunting, The (1963)'
p255
S'0057129'
p256
sS'Heavy (1995)'
p257
S'0113280'
p258
sS'Super Mario Bros. (1993)'
p259
S'0108255'
p260
sS'Tom Jones (1963)'
p261
S'0057590'
p262
sS'Endurance (1999)'
p263
S'0120659'
p264
sS'Mask, The (1994)'
p265
S'0110912'
p266
sS'American in Paris, An (1951)'
p267
S'0043278'
p268
sS'Innocents, The (1961)'
p269
S'0835044'
p270
sS'Broadcast News (1987)'
p271
S'0092699'
p272
sS'No Escape (1994)'
p273
S'0110678'
p274
sS'Eye for an Eye (1996)'
p275
S'0116260'
p276
sS'James and the Giant Peach (1996)'
p277
S'0116683'
p278
sS'Beverly Hillbillies, The (1993)'
p279
S'0055662'
p280
sS'Alaska (1996)'
p281
S'0115493'
p282
sS'Hoodlum (1997)'
p283
S'0119311'
p284
sS'Desperado (1995)'
p285
S'0112851'
p286
sS'Mighty Joe Young (1998)'
p287
S'0120751'
p288
sS'Milk Money (1994)'
p289
S'0110516'
p290
sS'Smoke Signals (1998)'
p291
S'0120321'
p292
sS'On Any Sunday (1971)'
p293
S'0067527'
p294
sS'Head Above Water (1996)'
p295
S'0116502'
p296
sS'Man for All Seasons, A (1966)'
p297
S'0060665'
p298
sS'D3: The Mighty Ducks (1996)'
p299
S'0116000'
p300
sS'M. Butterfly (1993)'
p301
S'0107468'
p302
sS'Meteor (1979)'
p303
S'0079550'
p304
sS'Edge, The (1997)'
p305
S'0119051'
p306
sS'Oliver & Company (1988)'
p307
S'0095776'
p308
sS"Preacher's Wife, The (1996)"
p309
S'0117372'
p310
sS'Fresh (1994)'
p311
S'0109842'
p312
sS'Friday (1995)'
p313
S'0113118'
p314
sS"Once Upon a Time in the West (C'era una volta il West) (1968)"
p315
S'0064116'
p316
sS'Babe (1995)'
p317
S'0112431'
p318
sS'Goodbye Lover (1999)'
p319
S'0119219'
p320
sS'Lady of Burlesque (1943)'
p321
S'0036094'
p322
sS'Beverly Hills Ninja (1997)'
p323
S'0118708'
p324
sS'War Room, The (1993)'
p325
S'0108515'
p326
sS"Vacation (National Lampoon's Vacation) (1983)"
p327
S'0085995'
p328
sS'Kama Sutra: A Tale of Love (1996)'
p329
S'0116743'
p330
sS'Forrest Gump (1994)'
p331
S'0109830'
p332
sS'Great Mouse Detective, The (1986)'
p333
S'0091149'
p334
sS'Giant (1956)'
p335
S'0049261'
p336
sS'Extremities (1986)'
p337
S'0091024'
p338
sS"She's All That (1999)"
p339
S'0160862'
p340
sS'Willow (1988)'
p341
S'0096446'
p342
sS'Better Than Chocolate (1999)'
p343
S'0168987'
p344
sS'Long Goodbye, The (1973)'
p345
S'0070334'
p346
sS'Big (1988)'
p347
S'0094737'
p348
sS'Diabolique (1996)'
p349
S'0116095'
p350
sS'Galaxy Quest (1999)'
p351
S'0177789'
p352
sS'Small Soldiers (1998)'
p353
S'0122718'
p354
sS"Dracula (Bram Stoker's Dracula) (1992)"
p355
S'0103874'
p356
sS'Philadelphia Story, The (1940)'
p357
S'0032904'
p358
sS'Grosse Pointe Blank (1997)'
p359
S'0119229'
p360
sS"Astronaut's Wife, The (1999)"
p361
S'0138304'
p362
sS'Go (1999)'
p363
S'0139239'
p364
sS'Wizard of Oz, The (1939)'
p365
S'0780352'
p366
sS'Another Day in Paradise (1998)'
p367
S'0127722'
p368
sS'Boomerang (1992)'
p369
S'0103859'
p370
sS'Pok\xc3\xa9mon: The First Movie (1998)'
p371
S'0190641'
p372
sS'Raw Deal (1948)'
p373
S'0040723'
p374
sS'Nemesis 2: Nebula (1995)'
p375
S'0113948'
p376
sS'Nowhere (1997)'
p377
S'0119809'
p378
sS'Butch Cassidy and the Sundance Kid (1969)'
p379
S'0064115'
p380
sS'Gate II: Trespassers, The (1990)'
p381
S'0099636'
p382
sS'Mummy, The (1932)'
p383
S'1447405'
p384
sS'Take the Money and Run (1969)'
p385
S'0065063'
p386
sS'Back to the Future Part III (1990)'
p387
S'0099088'
p388
sS'Harold and Maude (1971)'
p389
S'0067185'
p390
sS'Licence to Kill (1989)'
p391
S'0097742'
p392
sS'Holy Smoke (1999)'
p393
S'0144715'
p394
sS'Zero Kelvin (Kj\xc3\xa6rlighetens kj\xc3\xb8tere) (1995)'
p395
S'0113557'
p396
sS'Calendar Girl (1993)'
p397
S'0106505'
p398
sS'Stripes (1981)'
p399
S'0083131'
p400
sS'Apple Dumpling Gang, The (1975)'
p401
S'0072653'
p402
sS'Dave (1993)'
p403
S'0106673'
p404
sS'Before and After (1996)'
p405
S'0115645'
p406
sS"McHale's Navy (1997)"
p407
S'0119640'
p408
sS'They Made Me a Criminal (1939)'
p409
S'0032022'
p410
sS'Honey, I Shrunk the Kids (1989)'
p411
S'0097523'
p412
sS'Boiling Point (1993)'
p413
S'0106455'
p414
sS'Tall Tale (1995)'
p415
S'0111359'
p416
sS'Indochine (1992)'
p417
S'0104507'
p418
sS'Stage Fright (1950)'
p419
S'0042994'
p420
sS'See the Sea (Regarde la mer) (1997)'
p421
S'0139564'
p422
sS'Fireworks (Hana-bi) (1997)'
p423
S'0119250'
p424
sS'August (1996)'
p425
S'0115591'
p426
sS'Moll Flanders (1996)'
p427
S'0117071'
p428
sS'Surf Nazis Must Die (1987)'
p429
S'0094077'
p430
sS'Daylight (1996)'
p431
S'0116040'
p432
sS'Waterboy, The (1998)'
p433
S'0120484'
p434
sS'Bonheur, Le (1965)'
p435
S'0058985'
p436
sS'Hungarian Fairy Tale, A (Hol volt, hol nem volt) (1987)'
p437
S'0093199'
p438
sS'Permanent Midnight (1998)'
p439
S'0120788'
p440
sS"God Said 'Ha!' (1998)"
p441
S'0119207'
p442
sS'Bandit Queen (1994)'
p443
S'0109206'
p444
sS'Gun Shy (2000)'
p445
S'0171356'
p446
sS'Cry in the Dark, A (1988)'
p447
S'0094924'
p448
sS'Trick (1999)'
p449
S'0162710'
p450
sS'King Kong (1976)'
p451
S'0074751'
p452
sS'Full Tilt Boogie (1997)'
p453
S'0119165'
p454
sS'Forever Young (1992)'
p455
S'0104291'
p456
sS'Leave It to Beaver (1997)'
p457
S'0119509'
p458
sS'Best of the Best 3: No Turning Back (1995)'
p459
S'0112483'
p460
sS'Big Hit, The (1998)'
p461
S'0120609'
p462
sS'Glengarry Glen Ross (1992)'
p463
S'0104348'
p464
sS'Hurlyburly (1998)'
p465
S'0119336'
p466
sS'Lolita (1962)'
p467
S'0056193'
p468
sS'Santitos (1999)'
p469
S'0126651'
p470
sS"Can't Hardly Wait (1998)"
p471
S'0127723'
p472
sS'Absent-Minded Professor, The (1961)'
p473
S'0054594'
p474
sS"White Man's Burden (1995)"
p475
S'0114928'
p476
sS'Grease 2 (1982)'
p477
S'0084021'
p478
sS'Land Before Time III: The Time of the Great Giving (1995)'
p479
S'0113596'
p480
sS'Lake Placid (1999)'
p481
S'0139414'
p482
sS'For Richer or Poorer (1997)'
p483
S'0119142'
p484
sS'Raven, The (1963)'
p485
S'1682725'
p486
sS'Temptress Moon (Feng Yue) (1996)'
p487
S'0116295'
p488
sS'Go Now (1995)'
p489
S'0113184'
p490
sS'Prancer (1989)'
p491
S'0098115'
p492
sS'Phantom, The (1996)'
p493
S'0116365'
p494
sS'Mrs. Winterbourne (1996)'
p495
S'0117104'
p496
sS'King Kong (1933)'
p497
S'0024216'
p498
sS'Little Princess, A (1995)'
p499
S'0113670'
p500
sS'Murder in the First (1995)'
p501
S'0113870'
p502
sS'Nina Takes a Lover (1994)'
p503
S'0110671'
p504
sS'Eddie (1996)'
p505
S'0116168'
p506
sS'Flashdance (1983)'
p507
S'0085549'
p508
sS'Passion Fish (1992)'
p509
S'0105107'
p510
sS'Something Wicked This Way Comes (1983)'
p511
S'0086336'
p512
sS"Billy's Holiday (1995)"
p513
S'0112509'
p514
sS'Dumb & Dumber (1994)'
p515
S'0109686'
p516
sS'Devil in a Blue Dress (1995)'
p517
S'0112857'
p518
sS'Reindeer Games (2000)'
p519
S'0184858'
p520
sS'Bio-Dome (1996)'
p521
S'0115683'
p522
sS'Assassins (1995)'
p523
S'0112401'
p524
sS'Relic, The (1997)'
p525
S'0120004'
p526
sS'Howling, The (1980)'
p527
S'5101392'
p528
sS'187 (One Eight Seven) (1997)'
p529
S'0118531'
p530
sS'Wolf Man, The (1941)'
p531
S'1447411'
p532
sS'Coldblooded (1995)'
p533
S'0112702'
p534
sS'JLG/JLG (JLG/JLG - autoportrait de d\xc3\xa9cembre) (1994)'
p535
S'0110173'
p536
sS'Sour Grapes (1998)'
p537
S'0120838'
p538
sS'Bronx Tale, A (1993)'
p539
S'0106489'
p540
sS'Shadowlands (1993)'
p541
S'0108101'
p542
sS'Black Tar Heroin: The Dark End of the Street (2000)'
p543
S'0221023'
p544
sS'Rough Magic (1995)'
p545
S'0114303'
p546
sS'Blown Away (1994)'
p547
S'0109303'
p548
sS'I Still Know What You Did Last Summer (1998)'
p549
S'0130018'
p550
sS'Doors, The (1991)'
p551
S'0101761'
p552
sS'Audrey Rose (1977)'
p553
S'0075704'
p554
sS'Clerks (1994)'
p555
S'0109445'
p556
sS'Minnie and Moskowitz (1971)'
p557
S'0067433'
p558
sS'Scout, The (1994)'
p559
S'0111094'
p560
sS'Gandhi (1982)'
p561
S'0083987'
p562
sS"General's Daughter, The (1999)"
p563
S'0701645'
p564
sS"Soldier's Daughter Never Cries, A (1998)"
p565
S'0120835'
p566
sS'Rebecca (1940)'
p567
S'0032976'
p568
sS'Princess Mononoke (Mononoke-hime) (1997)'
p569
S'0119698'
p570
sS'Secret Agent (1936)'
p571
S'0028231'
p572
sS'Six Days Seven Nights (1998)'
p573
S'0120828'
p574
sS'Jean de Florette (1986)'
p575
S'0091288'
p576
sS'Trainspotting (1996)'
p577
S'0117951'
p578
sS'Adventures of Milo and Otis, The (Koneko monogatari) (1986)'
p579
S'0097050'
p580
sS'Prince of Egypt, The (1998)'
p581
S'0120794'
p582
sS'Gattaca (1997)'
p583
S'0119177'
p584
sS'Ciao, Professore! (Io speriamo che me la cavo) (1992)'
p585
S'0107225'
p586
sS'End of the Affair, The (1955)'
p587
S'0048034'
p588
sS'Batman Forever (1995)'
p589
S'0112462'
p590
sS"Miller's Crossing (1990)"
p591
S'0100150'
p592
sS'Strangers on a Train (1951)'
p593
S'0044079'
p594
sS'Return with Honor (1998)'
p595
S'0176093'
p596
sS'Whole Nine Yards, The (2000)'
p597
S'0190138'
p598
sS'Hackers (1995)'
p599
S'0113243'
p600
sS'Local Hero (1983)'
p601
S'0085859'
p602
sS'Fluke (1995)'
p603
S'0113089'
p604
sS'Faculty, The (1998)'
p605
S'0133751'
p606
sS'Man on the Moon (1999)'
p607
S'0125664'
p608
sS'Drunken Master (Jui kuen) (1978)'
p609
S'0080179'
p610
sS'Castle, The (1997)'
p611
S'0118826'
p612
sS'Kundun (1997)'
p613
S'0119485'
p614
sS'My Crazy Life (Mi vida loca) (1993)'
p615
S'0107566'
p616
sS'City of Angels (1998)'
p617
S'0120632'
p618
sS'Paradise Road (1997)'
p619
S'0119859'
p620
sS"Marvin's Room (1996)"
p621
S'0116999'
p622
sS'Cutthroat Island (1995)'
p623
S'0112760'
p624
sS'Sleepers (1996)'
p625
S'0117665'
p626
sS'Never Cry Wolf (1983)'
p627
S'0086005'
p628
sS'Air Force One (1997)'
p629
S'0118571'
p630
sS'Bride of Re-Animator (1990)'
p631
S'0099180'
p632
sS'Prom Night III: The Last Kiss (1989)'
p633
S'0098136'
p634
sS'Everyone Says I Love You (1996)'
p635
S'0116242'
p636
sS'Gate of Heavenly Peace, The (1995)'
p637
S'0113147'
p638
sS'Coma (1978)'
p639
S'0077355'
p640
sS'Vertigo (1958)'
p641
S'0052357'
p642
sS'Night at the Roxbury, A (1998)'
p643
S'0120770'
p644
sS'Butcher Boy, The (1997)'
p645
S'0118804'
p646
sS'Living Out Loud (1998)'
p647
S'0120722'
p648
sS'Somewhere in Time (1980)'
p649
S'0081534'
p650
sS'Poetic Justice (1993)'
p651
S'0107840'
p652
sS'Mickey Blue Eyes (1999)'
p653
S'0130121'
p654
sS'Late August, Early September (Fin ao\xc3\xbbt, d\xc3\xa9but septembre) (1998)'
p655
S'0167925'
p656
sS'Glimmer Man, The (1996)'
p657
S'0116421'
p658
sS'Hoop Dreams (1994)'
p659
S'0110057'
p660
sS'Boys on the Side (1995)'
p661
S'0112571'
p662
sS'Greatest Show on Earth, The (1952)'
p663
S'0044672'
p664
sS'Friends & Lovers (1999)'
p665
S'0143261'
p666
sS'Thinner (1996)'
p667
S'0117894'
p668
sS'Something to Talk About (1995)'
p669
S'0114496'
p670
sS'Crocodile Dundee II (1988)'
p671
S'0092493'
p672
sS'Long Kiss Goodnight, The (1996)'
p673
S'0116908'
p674
sS'Only Angels Have Wings (1939)'
p675
S'0031762'
p676
sS'L.A. Confidential (1997)'
p677
S'0119488'
p678
sS'Silence of the Lambs, The (1991)'
p679
S'3645740'
p680
sS'Detroit Rock City (1999)'
p681
S'0165710'
p682
sS'Metropolitan (1990)'
p683
S'0100142'
p684
sS'Mod Squad, The (1999)'
p685
S'0120757'
p686
sS'Star Wars: Episode I - The Phantom Menace (1999)'
p687
S'0120915'
p688
sS'Chasing Amy (1997)'
p689
S'0118842'
p690
sS'Avengers, The (1998)'
p691
S'3763262'
p692
sS'Star Trek: First Contact (1996)'
p693
S'0117731'
p694
sS"Midsummer Night's Dream, A (William Shakespeare's A Midsummer Night's Dream) (1999)"
p695
S'0140379'
p696
sS'Superman (1978)'
p697
S'0078346'
p698
sS'Santa Clause, The (1994)'
p699
S'0111070'
p700
sS'Trip to Bountiful, The (1985)'
p701
S'0090203'
p702
sS'Dangerous Game (1993)'
p703
S'0106660'
p704
sS'Friday the 13th Part 2 (1981)'
p705
S'0082418'
p706
sS'Chinatown (1974)'
p707
S'0071315'
p708
sS'Secret of NIMH, The (1982)'
p709
S'2129632'
p710
sS'Back to the Future (1985)'
p711
S'0088763'
p712
sS'Hurricane Streets (1997)'
p713
S'0119338'
p714
sS'Swan Princess, The (1994)'
p715
S'0149215'
p716
sS'Story of Xinghua, The (Xinghua san yue tian) (1994)'
p717
S'0108227'
p718
sS'Volunteers (1985)'
p719
S'0090274'
p720
sS'Nightwatch (1997)'
p721
S'0119791'
p722
sS'Boiler Room (2000)'
p723
S'0181984'
p724
sS'Psycho II (1983)'
p725
S'0086154'
p726
sS'Stardust Memories (1980)'
p727
S'0081554'
p728
sS'Eye of the Beholder (1999)'
p729
S'0120662'
p730
sS'Among Giants (1998)'
p731
S'0122906'
p732
sS'Universal Soldier: The Return (1999)'
p733
S'0176269'
p734
sS"One Flew Over the Cuckoo's Nest (1975)"
p735
S'0073486'
p736
sS'Poison (1991)'
p737
S'0102687'
p738
sS'Jawbreaker (1999)'
p739
S'0155776'
p740
sS'Forces of Nature (1999)'
p741
S'0141098'
p742
sS'Kramer vs. Kramer (1979)'
p743
S'0079417'
p744
sS'Top Hat (1935)'
p745
S'0027125'
p746
sS"City Slickers II: The Legend of Curly's Gold (1994)"
p747
S'0109439'
p748
sS'Phenomenon (1996)'
p749
S'0117333'
p750
sS'My Favorite Year (1982)'
p751
S'0084370'
p752
sS'Secret Garden, The (1993)'
p753
S'1596204'
p754
sS'Goofy Movie, A (1995)'
p755
S'0113198'
p756
sS'S.F.W. (1994)'
p757
S'0111048'
p758
sS'Raise the Red Lantern (Da hong deng long gao gao gua) (1991)'
p759
S'0101640'
p760
sS'Sting, The (1973)'
p761
S'0070735'
p762
sS"Taste of Cherry (Ta'm e guilass) (1997)"
p763
S'0120265'
p764
sS'Welcome to Woop-Woop (1997)'
p765
S'0120491'
p766
sS'Blue in the Face (1995)'
p767
S'0112541'
p768
sS'How Stella Got Her Groove Back (1998)'
p769
S'0120703'
p770
sS'NeverEnding Story II: The Next Chapter, The (1990)'
p771
S'0100240'
p772
sS'Exorcist III, The (1990)'
p773
S'0099528'
p774
sS'Next Stop Wonderland (1998)'
p775
S'0119778'
p776
sS'Crying Game, The (1992)'
p777
S'0104036'
p778
sS'Leaving Las Vegas (1995)'
p779
S'0113627'
p780
sS'Mad Love (1995)'
p781
S'0113729'
p782
sS'Metropolis (1927)'
p783
S'0017136'
p784
sS'House (1986)'
p785
S'0091223'
p786
sS'Live and Let Die (1973)'
p787
S'0070328'
p788
sS'Relative Fear (1994)'
p789
S'0110965'
p790
sS'Splendor in the Grass (1961)'
p791
S'0055471'
p792
sS'Gremlins (1984)'
p793
S'0087363'
p794
sS'Hero (1992)'
p795
S'0104412'
p796
sS'Harem (1985)'
p797
S'0089256'
p798
sS'Bowfinger (1999)'
p799
S'0131325'
p800
sS'Emma (1996)'
p801
S'0116191'
p802
sS'G.I. Jane (1997)'
p803
S'0119173'
p804
sS'Saltmen of Tibet, The (Salzm\xc3\xa4nner von Tibet, Die) (1997)'
p805
S'0120056'
p806
sS'Friday the 13th Part IV: The Final Chapter (1984)'
p807
S'0087298'
p808
sS'Man of the Year (1995)'
p809
S'0113756'
p810
sS'Low Down Dirty Shame, A (1994)'
p811
S'0110399'
p812
sS'Star Trek: Generations (1994)'
p813
S'0111280'
p814
sS'Anaconda (1997)'
p815
S'0118615'
p816
sS'Johns (1996)'
p817
S'0116714'
p818
sS'Alien: Resurrection (1997)'
p819
S'0118583'
p820
sS'Haunting, The (1999)'
p821
S'0134119'
p822
sS'Pest, The (1997)'
p823
S'1655606'
p824
sS'Quick and the Dead, The (1995)'
p825
S'0114214'
p826
sS'Cousin Bette (1998)'
p827
S'0118894'
p828
sS'Great Muppet Caper, The (1981)'
p829
S'0082474'
p830
sS'Man from Laramie, The (1955)'
p831
S'0048342'
p832
sS'Kiss of Death (1995)'
p833
S'0113552'
p834
sS'Sweet Nothing (1996)'
p835
S'0114592'
p836
sS'Romance (1999)'
p837
S'0194314'
p838
sS"Let's Talk About Sex (1998)"
p839
S'0165857'
p840
sS'Young Frankenstein (1974)'
p841
S'0072431'
p842
sS'All Over Me (1997)'
p843
S'0118586'
p844
sS'Beautiful People (1999)'
p845
S'0159272'
p846
sS'Arsenic and Old Lace (1944)'
p847
S'0036613'
p848
sS'Dangerous Beauty (1998)'
p849
S'0118892'
p850
sS'Supernova (2000)'
p851
S'0134983'
p852
sS'Sixteen Candles (1984)'
p853
S'0088128'
p854
sS'Condition Red (Beyond the Law) (1995)'
p855
S'0112712'
p856
sS'Grapes of Wrath, The (1940)'
p857
S'1922745'
p858
sS'Hunted, The (1995)'
p859
S'0113360'
p860
sS'Murder, My Sweet (1944)'
p861
S'0037101'
p862
sS'Bodyguard, The (1992)'
p863
S'1403635'
p864
sS'Mrs. Miniver (1942)'
p865
S'0035093'
p866
sS'Die Hard 2 (1990)'
p867
S'0099423'
p868
sS'Night on Earth (1991)'
p869
S'0102536'
p870
sS'Mad City (1997)'
p871
S'0119592'
p872
sS'On the Ropes (1999)'
p873
S'0181733'
p874
sS'Stand and Deliver (1988)'
p875
S'0094027'
p876
sS'Total Eclipse (1995)'
p877
S'0114702'
p878
sS'Aladdin (1992)'
p879
S'0103639'
p880
sS'That Darn Cat! (1965)'
p881
S'0059793'
p882
sS'Odessa File, The (1974)'
p883
S'0071935'
p884
sS'Citizen Kane (1941)'
p885
S'0033467'
p886
sS'Sexual Life of the Belgians, The (Vie sexuelle des Belges 1950-1978, La) (1994)'
p887
S'0111622'
p888
sS'Tarzan (1999)'
p889
S'0120855'
p890
sS'Fear of a Black Hat (1994)'
p891
S'0106880'
p892
sS'Marked for Death (1990)'
p893
S'0100114'
p894
sS'Two Much (1995)'
p895
S'0535395'
p896
sS'Bound for Glory (1976)'
p897
S'0074235'
p898
sS'Player, The (1992)'
p899
S'0105151'
p900
sS'Stalag 17 (1953)'
p901
S'0046359'
p902
sS'Mumford (1999)'
p903
S'0140397'
p904
sS"Wooden Man's Bride, The (Yan shen) (1994)"
p905
S'0111752'
p906
sS'Kissed (1996)'
p907
S'0116783'
p908
sS'English Patient, The (1996)'
p909
S'0116209'
p910
sS'Bad Boys (1995)'
p911
S'0112442'
p912
sS'Three Seasons (1999)'
p913
S'0138874'
p914
sS'Jaws 2 (1978)'
p915
S'0077766'
p916
sS'Falling Down (1993)'
p917
S'0106856'
p918
sS'Adventures of Buckaroo Banzai Across the 8th Dimension, The (1984)'
p919
S'0086856'
p920
sS'Portrait of a Lady, The (1996)'
p921
S'0117364'
p922
sS'Patton (1970)'
p923
S'0066206'
p924
sS'Celtic Pride (1996)'
p925
S'0115851'
p926
sS'Vibes (1988)'
p927
S'0096378'
p928
sS"Cheech and Chong's Up in Smoke (1978)"
p929
S'0078446'
p930
sS'One Night Stand (1997)'
p931
S'0119832'
p932
sS'Nightmares (1983)'
p933
S'0086014'
p934
sS'Family Thing, A (1996)'
p935
S'0116275'
p936
sS'Aristocats, The (1970)'
p937
S'0065421'
p938
sS'Love Letter, The (1999)'
p939
S'0166252'
p940
sS'Double Jeopardy (1999)'
p941
S'0150377'
p942
sS'Cat from Outer Space, The (1978)'
p943
S'0077305'
p944
sS'Bats (1999)'
p945
S'0200469'
p946
sS'Lone Star (1996)'
p947
S'0116905'
p948
sS'And God Created Woman (1988)'
p949
S'0092559'
p950
sS'Verdict, The (1982)'
p951
S'0084855'
p952
sS'Wisdom (1986)'
p953
S'2022437'
p954
sS'In & Out (1997)'
p955
S'0119360'
p956
sS'Body Snatcher, The (1945)'
p957
S'4810784'
p958
sS"Monty Python's And Now for Something Completely Different (1971)"
p959
S'0066765'
p960
sS'Very Thought of You, The (1998)'
p961
S'0120747'
p962
sS'Stand by Me (1986)'
p963
S'0092005'
p964
sS'Palmetto (1998)'
p965
S'0120782'
p966
sS'Heavy Metal (1981)'
p967
S'0082509'
p968
sS'Cop Land (1997)'
p969
S'0118887'
p970
sS'Bushwhacked (1995)'
p971
S'0112602'
p972
sS'American Flyers (1985)'
p973
S'0088707'
p974
sS'Homeward Bound: The Incredible Journey (1993)'
p975
S'0107131'
p976
sS'Aliens (1986)'
p977
S'0090605'
p978
sS'Othello (1995)'
p979
S'0114057'
p980
sS'Simple Twist of Fate, A (1994)'
p981
S'0111194'
p982
sS'Unbearable Lightness of Being, The (1988)'
p983
S'0096332'
p984
sS'Big Country, The (1958)'
p985
S'0902956'
p986
sS'Four Rooms (1995)'
p987
S'0113101'
p988
sS'Train of Life (Train de vie) (1998)'
p989
S'0170705'
p990
sS'Red Violin, The (Violon rouge, Le) (1998)'
p991
S'0120802'
p992
sS'Funny Farm (1988)'
p993
S'0095188'
p994
sS'Pallbearer, The (1996)'
p995
S'0117283'
p996
sS'Faithful (1996)'
p997
S'0116269'
p998
sS'Shawshank Redemption, The (1994)'
p999
S'0111161'
p1000
sS'Head On (1998)'
p1001
S'0138487'
p1002
sS'Junior (1994)'
p1003
S'0110216'
p1004
sS'12 Angry Men (1957)'
p1005
S'0050083'
p1006
sS'Snow Day (2000)'
p1007
S'0184907'
p1008
sS'American Movie (1999)'
p1009
S'0181288'
p1010
sS'Identification of a Woman (Identificazione di una donna) (1982)'
p1011
S'0084116'
p1012
sS'Little Lord Fauntleroy (1936)'
p1013
S'0027893'
p1014
sS'Eight Days a Week (1997)'
p1015
S'0119054'
p1016
sS'Postman, The (Postino, Il) (1994)'
p1017
S'0110877'
p1018
sS'Untouchables, The (1987)'
p1019
S'0430727'
p1020
sS'Cemetery Man (Dellamorte Dellamore) (1994)'
p1021
S'2332155'
p1022
sS'Mr. Wrong (1996)'
p1023
S'0117102'
p1024
sS'If.... (1968)'
p1025
S'0063850'
p1026
sS'Golden Child, The (1986)'
p1027
S'0091129'
p1028
sS'Zero Effect (1998)'
p1029
S'0120906'
p1030
sS'Cool Runnings (1993)'
p1031
S'0106611'
p1032
sS'Jeffrey (1995)'
p1033
S'0113464'
p1034
sS'Timecop (1994)'
p1035
S'0111438'
p1036
sS'Last Night (1998)'
p1037
S'0156729'
p1038
sS'Rob Roy (1995)'
p1039
S'0114287'
p1040
sS'Alan Smithee Film: Burn Hollywood Burn, An (1997)'
p1041
S'0118577'
p1042
sS'Man and a Woman, A (Un homme et une femme) (1966)'
p1043
S'0061138'
p1044
sS'Two Thousand Maniacs! (1964)'
p1045
S'0058694'
p1046
sS'Next Karate Kid, The (1994)'
p1047
S'0110657'
p1048
sS'Bicentennial Man (1999)'
p1049
S'0182789'
p1050
sS'Blink (1994)'
p1051
S'6130672'
p1052
sS'Out-of-Towners, The (1999)'
p1053
S'0701636'
p1054
sS'Fools Rush In (1997)'
p1055
S'0119141'
p1056
sS'Elephant Man, The (1980)'
p1057
S'6327684'
p1058
sS'Bliss (1997)'
p1059
S'0118742'
p1060
sS'Third Miracle, The (1999)'
p1061
S'0174268'
p1062
sS'My Man Godfrey (1936)'
p1063
S'0028010'
p1064
sS'Unforgiven (1992)'
p1065
S'0105695'
p1066
sS'Girl, Interrupted (1999)'
p1067
S'0172493'
p1068
sS'Ace Ventura: When Nature Calls (1995)'
p1069
S'0112281'
p1070
sS'Fantasia (1940)'
p1071
S'0032455'
p1072
sS'Re-Animator (1985)'
p1073
S'0089885'
p1074
sS'Fire Within, The (Feu follet, Le) (1963)'
p1075
S'0057058'
p1076
sS'Stir of Echoes (1999)'
p1077
S'0164181'
p1078
sS'Doctor Zhivago (1965)'
p1079
S'0059113'
p1080
sS'Blood, Guts, Bullets and Octane (1998)'
p1081
S'0163984'
p1082
sS'Seventh Seal, The (Sjunde inseglet, Det) (1957)'
p1083
S'0050976'
p1084
sS'Fletch Lives (1989)'
p1085
S'0097366'
p1086
sS"Weekend at Bernie's (1989)"
p1087
S'0098627'
p1088
sS'Patriot Games (1992)'
p1089
S'0105112'
p1090
sS'House on Haunted Hill (1959)'
p1091
S'0051744'
p1092
sS'Love Is All There Is (1996)'
p1093
S'0116928'
p1094
sS'Dracula: Dead and Loving It (1995)'
p1095
S'0112896'
p1096
sS'Shooting Fish (1997)'
p1097
S'0120122'
p1098
sS'How to Make an American Quilt (1995)'
p1099
S'0113347'
p1100
sS'Black Mask (Hak hap) (1996)'
p1101
S'0115693'
p1102
sS'Candyman (1992)'
p1103
S'0103919'
p1104
sS'Return from Witch Mountain (1978)'
p1105
S'0078158'
p1106
sS'Kid, The (1921)'
p1107
S'0012349'
p1108
sS'Separation, The (S\xc3\xa9paration, La) (1994)'
p1109
S'0111342'
p1110
sS'Bad Company (1995)'
p1111
S'0112443'
p1112
sS'Speechless (1994)'
p1113
S'0111256'
p1114
sS'Courage Under Fire (1996)'
p1115
S'0115956'
p1116
sS'Twelfth Night (1996)'
p1117
S'0698921'
p1118
sS'Conformist, The (Conformista, Il) (1970)'
p1119
S'0065571'
p1120
sS'JFK (1991)'
p1121
S'0102138'
p1122
sS'Heat (1995)'
p1123
S'0113277'
p1124
sS'Terminator 2: Judgment Day (1991)'
p1125
S'0103064'
p1126
sS'Rocky III (1982)'
p1127
S'0084602'
p1128
sS"What's Eating Gilbert Grape (1993)"
p1129
S'0108550'
p1130
sS'Go Fish (1994)'
p1131
S'0109913'
p1132
sS'Mighty, The (1998)'
p1133
S'0120751'
p1134
sS'Cutting Edge, The (1992)'
p1135
S'0428441'
p1136
sS'Zed & Two Noughts, A (1985)'
p1137
S'0090366'
p1138
sS'Iron Eagle (1986)'
p1139
S'0091278'
p1140
sS"Freddy's Dead: The Final Nightmare (Nightmare on Elm Street Part 6: Freddy's Dead, A) (1991)"
p1141
S'0101917'
p1142
sS'Black Cauldron, The (1985)'
p1143
S'0088814'
p1144
sS'Buddy (1997)'
p1145
S'0118787'
p1146
sS'Simple Plan, A (1998)'
p1147
S'0447700'
p1148
sS'Boot, Das (Boat, The) (1981)'
p1149
S'0082096'
p1150
sS'Stag (1997)'
p1151
S'0120192'
p1152
sS'Paris, Texas (1984)'
p1153
S'0087884'
p1154
sS'Diva (1981)'
p1155
S'0082269'
p1156
sS'Paradine Case, The (1947)'
p1157
S'0039694'
p1158
sS'Last Picture Show, The (1971)'
p1159
S'0067328'
p1160
sS'Against All Odds (1984)'
p1161
S'0086859'
p1162
sS'Sweet Hereafter, The (1997)'
p1163
S'0120255'
p1164
sS'Poison Ivy (1992)'
p1165
S'0105156'
p1166
sS'Search for One-eye Jimmy, The (1996)'
p1167
S'0117577'
p1168
sS'Rounders (1998)'
p1169
S'0128442'
p1170
sS'Glass Bottom Boat, The (1966)'
p1171
S'0060463'
p1172
sS'Garbage Pail Kids Movie, The (1987)'
p1173
S'0093072'
p1174
sS'Trial by Jury (1994)'
p1175
S'0111488'
p1176
sS'Meet Wally Sparks (1997)'
p1177
S'0119644'
p1178
sS'Martin Lawrence: You So Crazy (1994)'
p1179
S'0111804'
p1180
sS'Nightmare on Elm Street 5: The Dream Child, A (1989)'
p1181
S'0097981'
p1182
sS'Hard-Boiled (Lat sau san taam) (1992)'
p1183
S'0104684'
p1184
sS'Fletch (1985)'
p1185
S'0089155'
p1186
sS'Just the Ticket (1999)'
p1187
S'0123221'
p1188
sS'Tin Cup (1996)'
p1189
S'0117918'
p1190
sS'Cat People (1982)'
p1191
S'0083722'
p1192
sS'Adventures in Babysitting (1987)'
p1193
S'0092513'
p1194
sS'Dinner Game, The (D\xc3\xaener de cons, Le) (1998)'
p1195
S'0119038'
p1196
sS'Boys (1996)'
p1197
S'0115742'
p1198
sS'Lord of the Rings, The (1978)'
p1199
S'0120737'
p1200
sS'Drop Zone (1994)'
p1201
S'0109676'
p1202
sS'Bottle Rocket (1996)'
p1203
S'0115734'
p1204
sS'Next Best Thing, The (2000)'
p1205
S'0700270'
p1206
sS'Halloween: The Curse of Michael Myers (Halloween 6: The Curse of Michael Myers) (1995)'
p1207
S'0113253'
p1208
sS'Afterglow (1997)'
p1209
S'0118566'
p1210
sS'Crooklyn (1994)'
p1211
S'0109504'
p1212
sS'Celebrity (1998)'
p1213
S'0120533'
p1214
sS"Nightmare on Elm Street 2: Freddy's Revenge, A (1985)"
p1215
S'0089686'
p1216
sS'Young Sherlock Holmes (1985)'
p1217
S'0090357'
p1218
sS'Rock, The (1996)'
p1219
S'0117500'
p1220
sS'Run Lola Run (Lola rennt) (1998)'
p1221
S'0130827'
p1222
sS'Roger & Me (1989)'
p1223
S'0098213'
p1224
sS'Battle for the Planet of the Apes (1973)'
p1225
S'0069768'
p1226
sS'Vampyros Lesbos (Vampiras, Las) (1971)'
p1227
S'0066380'
p1228
sS'Inventing the Abbotts (1997)'
p1229
S'0119381'
p1230
sS'Forbidden Planet (1956)'
p1231
S'0049223'
p1232
sS'Dr. Dolittle (1998)'
p1233
S'0118998'
p1234
sS'Lawnmower Man, The (1992)'
p1235
S'0104692'
p1236
sS'Eat Drink Man Woman (Yin shi nan nu) (1994)'
p1237
S'0111797'
p1238
sS'Affair to Remember, An (1957)'
p1239
S'0050105'
p1240
sS'Big Chill, The (1983)'
p1241
S'0085244'
p1242
sS'Come See the Paradise (1990)'
p1243
S'0099291'
p1244
sS'So I Married an Axe Murderer (1993)'
p1245
S'0108174'
p1246
sS'Siege, The (1998)'
p1247
S'0133952'
p1248
sS'Suture (1993)'
p1249
S'0108260'
p1250
sS'In the Bleak Midwinter (1995)'
p1251
S'1951951'
p1252
sS'As Good as It Gets (1997)'
p1253
S'0119822'
p1254
sS'Opposite of Sex, The (1998)'
p1255
S'0120777'
p1256
sS'Nights of Cabiria (Notti di Cabiria, Le) (1957)'
p1257
S'0050783'
p1258
sS'Natural Born Killers (1994)'
p1259
S'0110632'
p1260
sS'Great Santini, The (1979)'
p1261
S'0079239'
p1262
sS'Pollyanna (1960)'
p1263
S'0054195'
p1264
sS'Set It Off (1996)'
p1265
S'0117603'
p1266
sS'Sugar Town (1999)'
p1267
S'0173390'
p1268
sS'Black Hole, The (1979)'
p1269
S'0078869'
p1270
sS'When We Were Kings (1996)'
p1271
S'0118147'
p1272
sS'Wonder Boys (2000)'
p1273
S'0185014'
p1274
sS'Pillow Book, The (1996)'
p1275
S'6166230'
p1276
sS'Mister Roberts (1955)'
p1277
S'0048380'
p1278
sS'Herbie Rides Again (1974)'
p1279
S'0071607'
p1280
sS'Crow, The (1994)'
p1281
S'0109506'
p1282
sS'All Dogs Go to Heaven (1989)'
p1283
S'0096787'
p1284
sS'Women, The (1939)'
p1285
S'3957702'
p1286
sS'Dracula (1931)'
p1287
S'0021814'
p1288
sS'Places in the Heart (1984)'
p1289
S'0087921'
p1290
sS'Brazil (1985)'
p1291
S'0088846'
p1292
sS'Program, The (1993)'
p1293
S'0107889'
p1294
sS"Monty Python's Life of Brian (1979)"
p1295
S'0079470'
p1296
sS'Running Scared (1986)'
p1297
S'0091875'
p1298
sS'Hear My Song (1991)'
p1299
S'0102014'
p1300
sS'Pecker (1998)'
p1301
S'0126604'
p1302
sS'Terms of Endearment (1983)'
p1303
S'0086425'
p1304
sS'Lock, Stock & Two Smoking Barrels (1998)'
p1305
S'0120735'
p1306
sS'Children of a Lesser God (1986)'
p1307
S'0090830'
p1308
sS'Deconstructing Harry (1997)'
p1309
S'0118954'
p1310
sS'Watership Down (1978)'
p1311
S'0078480'
p1312
sS'Pelican Brief, The (1993)'
p1313
S'0107798'
p1314
sS'Poseidon Adventure, The (1972)'
p1315
S'0069113'
p1316
sS'Phoenix (1998)'
p1317
S'0119892'
p1318
sS'Blood and Wine (Blood & Wine) (1996)'
p1319
S'0115710'
p1320
sS'Thunderball (1965)'
p1321
S'0059800'
p1322
sS'What Dreams May Come (1998)'
p1323
S'0120889'
p1324
sS'Assassination (1987)'
p1325
S'0092585'
p1326
sS'Creepshow 2 (1987)'
p1327
S'0092796'
p1328
sS'Dance with Me (1998)'
p1329
S'0120576'
p1330
sS'Killing of Sister George, The (1968)'
p1331
S'0063185'
p1332
sS'eXistenZ (1999)'
p1333
S'0120907'
p1334
sS'Merry War, A (1997)'
p1335
S'0119453'
p1336
sS'Bedroom Window, The (1987)'
p1337
S'0092627'
p1338
sS'Ghost in the Shell (K\xc3\xb4kaku kid\xc3\xb4tai) (1995)'
p1339
S'0113568'
p1340
sS"Gridlock'd (1997)"
p1341
S'0119225'
p1342
sS'Bridge at Remagen, The (1969)'
p1343
S'0064110'
p1344
sS'10 Things I Hate About You (1999)'
p1345
S'0147800'
p1346
sS'Washington Square (1997)'
p1347
S'0120481'
p1348
sS'Babyfever (1994)'
p1349
S'0109191'
p1350
sS'Walkabout (1971)'
p1351
S'0067959'
p1352
sS'Grand Hotel (1932)'
p1353
S'0022958'
p1354
sS'Name of the Rose, The (Name der Rose, Der) (1986)'
p1355
S'0091605'
p1356
sS'Very Bad Things (1998)'
p1357
S'0124198'
p1358
sS'Second Jungle Book: Mowgli & Baloo, The (1997)'
p1359
S'0120087'
p1360
sS'Strawberry and Chocolate (Fresa y chocolate) (1993)'
p1361
S'0106966'
p1362
sS'Virtuosity (1995)'
p1363
S'0114857'
p1364
sS"Vegas Vacation (National Lampoon's Las Vegas Vacation) (1997)"
p1365
S'0120434'
p1366
sS'Schizopolis (1996)'
p1367
S'0117561'
p1368
sS'Steel (1997)'
p1369
S'0120207'
p1370
sS'Pet Sematary (1989)'
p1371
S'0098084'
p1372
sS'Artemisia (1997)'
p1373
S'0123385'
p1374
sS'Trial and Error (1997)'
p1375
S'0120373'
p1376
sS'Manon of the Spring (Manon des sources) (1986)'
p1377
S'0091480'
p1378
sS'Stepmom (1998)'
p1379
S'0120686'
p1380
sS'Horse Whisperer, The (1998)'
p1381
S'0472232'
p1382
sS'Edge of Seventeen (1998)'
p1383
S'0138414'
p1384
sS'Last Emperor, The (1987)'
p1385
S'0093389'
p1386
sS'Bent (1997)'
p1387
S'0118698'
p1388
sS'Out of Africa (1985)'
p1389
S'0089755'
p1390
sS'Lolita (1997)'
p1391
S'0119558'
p1392
sS'Barbarella (1968)'
p1393
S'0062711'
p1394
sS'Big Night (1996)'
p1395
S'0115678'
p1396
sS'Trees Lounge (1996)'
p1397
S'0117958'
p1398
sS'Nutty Professor, The (1996)'
p1399
S'6154574'
p1400
sS'Associate, The (1996)'
p1401
S'0147760'
p1402
sS'Malice (1993)'
p1403
S'0107497'
p1404
sS'Naked (1993)'
p1405
S'0107653'
p1406
sS'Glory (1989)'
p1407
S'0097441'
p1408
sS'Small Wonders (1995)'
p1409
S'0117669'
p1410
sS'Wag the Dog (1997)'
p1411
S'0120885'
p1412
sS"Sophie's Choice (1982)"
p1413
S'0084707'
p1414
sS'Paris, France (1993)'
p1415
S'0107779'
p1416
sS'Few Good Men, A (1992)'
p1417
S'0104257'
p1418
sS'Celebration, The (Festen) (1998)'
p1419
S'0154420'
p1420
sS'Unzipped (1995)'
p1421
S'0114805'
p1422
sS'Desert Blue (1999)'
p1423
S'0578164'
p1424
sS'Down in the Delta (1998)'
p1425
S'0142231'
p1426
sS'On Golden Pond (1981)'
p1427
S'0082846'
p1428
sS'Kolya (Kolja) (1996)'
p1429
S'0116790'
p1430
sS'Hellraiser: Bloodline (1996)'
p1431
S'0116514'
p1432
sS'Around the World in 80 Days (1956)'
p1433
S'0327437'
p1434
sS'Amityville: Dollhouse (1996)'
p1435
S'0115535'
p1436
sS'Lady Eve, The (1941)'
p1437
S'0033804'
p1438
sS'Metro (1997)'
p1439
S'0119664'
p1440
sS'Bandits (1997)'
p1441
S'0118682'
p1442
sS"We're Back! A Dinosaur's Story (1993)"
p1443
S'0108526'
p1444
sS'Picnic at Hanging Rock (1975)'
p1445
S'0073540'
p1446
sS'Female Perversions (1996)'
p1447
S'0116293'
p1448
sS'Callej\xc3\xb3n de los milagros, El (1995)'
p1449
S'0112619'
p1450
sS'Plan 9 from Outer Space (1959)'
p1451
S'0052077'
p1452
sS'Jade (1995)'
p1453
S'0113451'
p1454
sS'Bull Durham (1988)'
p1455
S'0094812'
p1456
sS'Shadow, The (1994)'
p1457
S'0111143'
p1458
sS'Wallace & Gromit: The Best of Aardman Animation (1996)'
p1459
S'0118114'
p1460
sS"You Can't Take It with You (1938)"
p1461
S'0030993'
p1462
sS'Good, the Bad and the Ugly, The (Buono, il brutto, il cattivo, Il) (1966)'
p1463
S'0060196'
p1464
sS'Fright Night Part II (1988)'
p1465
S'0097390'
p1466
sS'Tales of Terror (1962)'
p1467
S'0056552'
p1468
sS'Dudley Do-Right (1999)'
p1469
S'0160236'
p1470
sS'Airplane! (1980)'
p1471
S'0080339'
p1472
sS'Friday the 13th Part 3: 3D (1982)'
p1473
S'3734214'
p1474
sS'NeverEnding Story, The (1984)'
p1475
S'2157312'
p1476
sS"I Love You, Don't Touch Me! (1998)"
p1477
S'0130019'
p1478
sS'Goodfellas (1990)'
p1479
S'0099685'
p1480
sS"All the King's Men (1949)"
p1481
S'0041113'
p1482
sS'Reservoir Dogs (1992)'
p1483
S'0105236'
p1484
sS'Manny & Lo (1996)'
p1485
S'0116985'
p1486
sS'Man of the Century (1999)'
p1487
S'0138537'
p1488
sS'Hamlet (1964)'
p1489
S'0058126'
p1490
sS'Julien Donkey-Boy (1999)'
p1491
S'0192194'
p1492
sS'8 Heads in a Duffel Bag (1997)'
p1493
S'0118541'
p1494
sS'Batman: Mask of the Phantasm (1993)'
p1495
S'0106364'
p1496
sS'Police Academy 5: Assignment: Miami Beach (1988)'
p1497
S'0095882'
p1498
sS'Cabin Boy (1994)'
p1499
S'0109361'
p1500
sS'Last Klezmer: Leopold Kozlowski, His Life and Music, The (1994)'
p1501
S'0113610'
p1502
sS'Farewell to Arms, A (1932)'
p1503
S'0022879'
p1504
sS'Anywhere But Here (1999)'
p1505
S'0149691'
p1506
sS'Body Shots (1999)'
p1507
S'0172627'
p1508
sS'Babes in Toyland (1961)'
p1509
S'0054649'
p1510
sS"Don't Be a Menace to South Central While Drinking Your Juice in the Hood (1996)"
p1511
S'0116126'
p1512
sS'Wrongfully Accused (1998)'
p1513
S'0120901'
p1514
sS'I.Q. (1994)'
p1515
S'0110099'
p1516
sS"Microcosmos (Microcosmos: Le peuple de l'herbe) (1996)"
p1517
S'0117040'
p1518
sS'Producers, The (1968)'
p1519
S'0505301'
p1520
sS"Ed's Next Move (1996)"
p1521
S'0116167'
p1522
sS'Pushing Tin (1999)'
p1523
S'0120797'
p1524
sS'Best Years of Our Lives, The (1946)'
p1525
S'0036868'
p1526
sS'Apple, The (Sib) (1998)'
p1527
S'0156901'
p1528
sS'Awfully Big Adventure, An (1995)'
p1529
S'0112427'
p1530
sS'Illuminata (1998)'
p1531
S'0120709'
p1532
sS'Never Been Kissed (1999)'
p1533
S'0151738'
p1534
sS'Tomorrow Never Dies (1997)'
p1535
S'0120347'
p1536
sS'I Know What You Did Last Summer (1997)'
p1537
S'0119345'
p1538
sS'Switchback (1997)'
p1539
S'0119210'
p1540
sS'Sydney (Hard Eight) (1996)'
p1541
S'0119256'
p1542
sS'Down Periscope (1996)'
p1543
S'0116130'
p1544
sS'Fear (1996)'
p1545
S'0116287'
p1546
sS'Mass Appeal (1984)'
p1547
S'0087688'
p1548
sS'Night Porter, The (Portiere di notte, Il) (1974)'
p1549
S'0071910'
p1550
sS'Dark Half, The (1993)'
p1551
S'0106664'
p1552
sS'Hurricane, The (1999)'
p1553
S'1666845'
p1554
sS'200 Cigarettes (1999)'
p1555
S'0137338'
p1556
sS'Thin Red Line, The (1998)'
p1557
S'0120863'
p1558
sS'Amityville Horror, The (1979)'
p1559
S'0078767'
p1560
sS'Keys to Tulsa (1997)'
p1561
S'0116762'
p1562
sS'Big Green, The (1995)'
p1563
S'0112499'
p1564
sS'High Noon (1952)'
p1565
S'0044706'
p1566
sS'Bean (1997)'
p1567
S'0118689'
p1568
sS'American Tail: Fievel Goes West, An (1991)'
p1569
S'0101329'
p1570
sS'Fair Game (1995)'
p1571
S'0113010'
p1572
sS'Showgirls (1995)'
p1573
S'0114436'
p1574
sS"Krippendorf's Tribe (1998)"
p1575
S'0120725'
p1576
sS'Clan of the Cave Bear, The (1986)'
p1577
S'0090848'
p1578
sS'Truman Show, The (1998)'
p1579
S'0120382'
p1580
sS'Open Your Eyes (Abre los ojos) (1997)'
p1581
S'0125659'
p1582
sS'Nadja (1994)'
p1583
S'0110620'
p1584
sS'Face in the Crowd, A (1957)'
p1585
S'0050371'
p1586
sS'Streetcar Named Desire, A (1951)'
p1587
S'0044081'
p1588
sS'Apostle, The (1997)'
p1589
S'0118632'
p1590
sS'Higher Learning (1995)'
p1591
S'0113305'
p1592
sS'Pretty Woman (1990)'
p1593
S'0100405'
p1594
sS"Heaven's Burning (1997)"
p1595
S'0119272'
p1596
sS'Last Supper, The (1995)'
p1597
S'2000418'
p1598
sS'Trigger Effect, The (1996)'
p1599
S'6148556'
p1600
sS'Dr. No (1962)'
p1601
S'0055928'
p1602
sS'Scream 3 (2000)'
p1603
S'0134084'
p1604
sS'Old Man and the Sea, The (1958)'
p1605
S'3469902'
p1606
sS'League of Their Own, A (1992)'
p1607
S'0104694'
p1608
sS'Nutty Professor, The (1963)'
p1609
S'6154574'
p1610
sS'Farewell My Concubine (Ba wang bie ji) (1993)'
p1611
S'0106332'
p1612
sS'Black Sheep (1996)'
p1613
S'0115697'
p1614
sS'Hilary and Jackie (1998)'
p1615
S'0150915'
p1616
sS'Great Race, The (1965)'
p1617
S'1488350'
p1618
sS'Random Hearts (1999)'
p1619
S'0156934'
p1620
sS'Multiplicity (1996)'
p1621
S'0117108'
p1622
sS'Dr. Strangelove or: How I Learned to Stop Worrying and Love the Bomb (1964)'
p1623
S'0057012'
p1624
sS'Open Season (1996)'
p1625
S'1432733'
p1626
sS'Donnie Brasco (1997)'
p1627
S'0119008'
p1628
sS'To Catch a Thief (1955)'
p1629
S'0048728'
p1630
sS'North (1994)'
p1631
S'0110687'
p1632
sS'My Bodyguard (1980)'
p1633
S'0081207'
p1634
sS'Austin Powers: The Spy Who Shagged Me (1999)'
p1635
S'0145660'
p1636
sS'Pie in the Sky (1996)'
p1637
S'0114131'
p1638
sS'Guardian, The (1990)'
p1639
S'0099710'
p1640
sS"Draughtsman's Contract, The (1982)"
p1641
S'0083851'
p1642
sS'Albino Alligator (1996)'
p1643
S'0115495'
p1644
sS'My Family (1995)'
p1645
S'0113896'
p1646
sS'Fan, The (1996)'
p1647
S'1655606'
p1648
sS'Pitch Black (2000)'
p1649
S'0134847'
p1650
sS'Wife, The (1995)'
p1651
S'0112126'
p1652
sS'Firelight (1997)'
p1653
S'0119125'
p1654
sS'Slaughterhouse 2 (1988)'
p1655
S'0069280'
p1656
sS'Beach, The (2000)'
p1657
S'5852168'
p1658
sS'Evita (1996)'
p1659
S'0116250'
p1660
sS'Beautician and the Beast, The (1997)'
p1661
S'0118691'
p1662
sS'So Dear to My Heart (1949)'
p1663
S'0041890'
p1664
sS'Splendor (1999)'
p1665
S'0127296'
p1666
sS"Devil's Brigade, The (1968)"
p1667
S'0062886'
p1668
sS'Losing Chase (1996)'
p1669
S'0116920'
p1670
sS'Man of No Importance, A (1994)'
p1671
S'0110455'
p1672
sS'Sword in the Stone, The (1963)'
p1673
S'0057546'
p1674
sS'Tales from the Hood (1995)'
p1675
S'0114609'
p1676
sS'Star Trek: The Motion Picture (1979)'
p1677
S'0079945'
p1678
sS'Friday the 13th Part V: A New Beginning (1985)'
p1679
S'6286284'
p1680
sS'Wallace & Gromit: The Wrong Trousers (1993)'
p1681
S'0108598'
p1682
sS'Breakdown (1997)'
p1683
S'0118771'
p1684
sS'On the Beach (1959)'
p1685
S'0053137'
p1686
sS'Ronin (1998)'
p1687
S'0122690'
p1688
sS'Sneakers (1992)'
p1689
S'0105435'
p1690
sS'Twister (1996)'
p1691
S'0117998'
p1692
sS"Isn't She Great? (2000)"
p1693
S'0141399'
p1694
sS'Two Jakes, The (1990)'
p1695
S'0100828'
p1696
sS'Tex (1982)'
p1697
S'0084783'
p1698
sS'Mona Lisa (1986)'
p1699
S'0091538'
p1700
sS'Switchblade Sisters (1975)'
p1701
S'0073778'
p1702
sS'Powder (1995)'
p1703
S'0114168'
p1704
sS'Lightning Jack (1994)'
p1705
S'0110353'
p1706
sS'Ghost of Frankenstein, The (1942)'
p1707
S'0034786'
p1708
sS'Little Nemo: Adventures in Slumberland (1992)'
p1709
S'0104740'
p1710
sS'Buena Vista Social Club (1999)'
p1711
S'0186508'
p1712
sS'Mad Dog Time (1996)'
p1713
S'0116953'
p1714
sS'Species (1995)'
p1715
S'0114508'
p1716
sS'Die Hard (1988)'
p1717
S'0095016'
p1718
sS'Frank and Ollie (1995)'
p1719
S'0113104'
p1720
sS'Deuce Bigalow: Male Gigolo (1999)'
p1721
S'0205000'
p1722
sS'Now and Then (1995)'
p1723
S'0114011'
p1724
sS'Ruby in Paradise (1993)'
p1725
S'0108000'
p1726
sS'Little Buddha (1993)'
p1727
S'0107426'
p1728
sS'Back to the Future Part II (1989)'
p1729
S'0096874'
p1730
sS'Lifeboat (1944)'
p1731
S'0037017'
p1732
sS'Attack of the Killer Tomatoes! (1978)'
p1733
S'0080391'
p1734
sS'Marnie (1964)'
p1735
S'0058329'
p1736
sS'Raising Arizona (1987)'
p1737
S'0093822'
p1738
sS'Chariots of Fire (1981)'
p1739
S'0082158'
p1740
sS'Hope Floats (1998)'
p1741
S'0119313'
p1742
sS'Deer Hunter, The (1978)'
p1743
S'0077416'
p1744
sS'Macao (1952)'
p1745
S'0044863'
p1746
sS'Two if by Sea (1996)'
p1747
S'0118002'
p1748
sS'Christmas Story, A (1983)'
p1749
S'0085334'
p1750
sS'Yojimbo (1961)'
p1751
S'0055630'
p1752
sS'Mediterraneo (1991)'
p1753
S'0102426'
p1754
sS'Outsiders, The (1983)'
p1755
S'0086066'
p1756
sS'Civil Action, A (1998)'
p1757
S'0120633'
p1758
sS'Brighton Beach Memoirs (1986)'
p1759
S'0090774'
p1760
sS'Very Brady Sequel, A (1996)'
p1761
S'0118073'
p1762
sS'Rich and Strange (1931)'
p1763
S'0696897'
p1764
sS'Five Easy Pieces (1970)'
p1765
S'0065724'
p1766
sS'Negotiator, The (1998)'
p1767
S'1478965'
p1768
sS'Children of the Corn II: The Final Sacrifice (1993)'
p1769
S'0106557'
p1770
sS'Longest Day, The (1962)'
p1771
S'0056197'
p1772
sS'Band Wagon, The (1953)'
p1773
S'0045537'
p1774
sS'Instinct (1999)'
p1775
S'0128278'
p1776
sS'Beauty and the Beast (1991)'
p1777
S'0101414'
p1778
sS'Father of the Bride Part II (1995)'
p1779
S'0113041'
p1780
sS'2001: A Space Odyssey (1968)'
p1781
S'0062622'
p1782
sS'Practical Magic (1998)'
p1783
S'0120791'
p1784
sS'Jerry Springer: Ringmaster (1998)'
p1785
S'0165494'
p1786
sS"Some Mother's Son (1996)"
p1787
S'0117690'
p1788
sS'Grace of My Heart (1996)'
p1789
S'0116442'
p1790
sS'Alien (1979)'
p1791
S'0078748'
p1792
sS'Boxing Helena (1993)'
p1793
S'0106471'
p1794
sS'In Dreams (1999)'
p1795
S'0120710'
p1796
sS'Rush Hour (1998)'
p1797
S'0120812'
p1798
sS'Hi-Lo Country, The (1998)'
p1799
S'0120699'
p1800
sS'Simpatico (1999)'
p1801
S'0174204'
p1802
sS'Anne Frank Remembered (1995)'
p1803
S'0112373'
p1804
sS'When Harry Met Sally... (1989)'
p1805
S'0098635'
p1806
sS'Chamber, The (1996)'
p1807
S'0115862'
p1808
sS'Perfect Candidate, A (1996)'
p1809
S'0117320'
p1810
sS'Black Cat, White Cat (Crna macka, beli macor) (1998)'
p1811
S'0118843'
p1812
sS'Scream 2 (1997)'
p1813
S'0120082'
p1814
sS'He Got Game (1998)'
p1815
S'0124718'
p1816
sS"Graveyard Shift (Stephen King's Graveyard Shift) (1990)"
p1817
S'0099697'
p1818
sS'Gigi (1958)'
p1819
S'0051658'
p1820
sS'Cliffhanger (1993)'
p1821
S'0106582'
p1822
sS'Theory of Flight, The (1998)'
p1823
S'1583688'
p1824
sS"I Can't Sleep (J'ai pas sommeil) (1994)"
p1825
S'0110171'
p1826
sS"Nobody's Fool (1994)"
p1827
S'0110684'
p1828
sS'Sommersby (1993)'
p1829
S'0108185'
p1830
sS"Mummy's Curse, The (1944)"
p1831
S'0037098'
p1832
sS"Jane Austen's Mafia! (1998)"
p1833
S'6176758'
p1834
sS'To Sir with Love (1967)'
p1835
S'0062376'
p1836
sS'Niagara, Niagara (1997)'
p1837
S'0119780'
p1838
sS'Real Blonde, The (1997)'
p1839
S'0119987'
p1840
sS'Othello (Tragedy of Othello: The Moor of Venice, The) (1952)'
p1841
S'0082862'
p1842
sS'In the Heat of the Night (1967)'
p1843
S'0061811'
p1844
sS'Kagemusha (1980)'
p1845
S'0080979'
p1846
sS'Carmen Miranda: Bananas Is My Business (1994)'
p1847
S'0109381'
p1848
sS'52 Pick-Up (1986)'
p1849
S'0090567'
p1850
sS'Hot Shots! Part Deux (1993)'
p1851
S'0107144'
p1852
sS'Muppets From Space (1999)'
p1853
S'0158811'
p1854
sS'Asphalt Jungle, The (1950)'
p1855
S'0042208'
p1856
sS'Holy Man (1998)'
p1857
S'0120701'
p1858
sS'Muppet Treasure Island (1996)'
p1859
S'0117110'
p1860
sS'Party Girl (1995)'
p1861
S'0114095'
p1862
sS'Grifters, The (1990)'
p1863
S'0099703'
p1864
sS'Scarlet Letter, The (1926)'
p1865
S'4368688'
p1866
sS'Slaughterhouse (1987)'
p1867
S'0093990'
p1868
sS'Wings of Desire (Himmel \xc3\xbcber Berlin, Der) (1987)'
p1869
S'0093191'
p1870
sS'I Am Cuba (Soy Cuba/Ya Kuba) (1964)'
p1871
S'0058604'
p1872
sS'Amos & Andrew (1993)'
p1873
S'0106266'
p1874
sS'Song of the South (1946)'
p1875
S'0038969'
p1876
sS'Dazed and Confused (1993)'
p1877
S'0106677'
p1878
sS'Lady and the Tramp (1955)'
p1879
S'0048280'
p1880
sS'Stupids, The (1996)'
p1881
S'0117768'
p1882
sS'Babysitter, The (1995)'
p1883
S'0630190'
p1884
sS'Wanted: Dead or Alive (1987)'
p1885
S'0094293'
p1886
sS'House of Dracula (1945)'
p1887
S'0037793'
p1888
sS'Striptease (1996)'
p1889
S'0117765'
p1890
sS'Stalingrad (1993)'
p1891
S'0108211'
p1892
sS'Shopping (1994)'
p1893
S'0111173'
p1894
sS'Out of the Past (1947)'
p1895
S'0039689'
p1896
sS'Infinity (1996)'
p1897
S'0116635'
p1898
sS"Dead Men Don't Wear Plaid (1982)"
p1899
S'0083798'
p1900
sS'Loss of Sexual Innocence, The (1999)'
p1901
S'0126859'
p1902
sS'Mystery, Alaska (1999)'
p1903
S'0134618'
p1904
sS'To Be or Not to Be (1942)'
p1905
S'0035446'
p1906
sS'Glen or Glenda (1953)'
p1907
S'0045826'
p1908
sS'Horseman on the Roof, The (Hussard sur le toit, Le) (1995)'
p1909
S'0113362'
p1910
sS'Crimes of the Heart (1986)'
p1911
S'0090886'
p1912
sS'Swiss Family Robinson (1960)'
p1913
S'0054357'
p1914
sS'Lovers on the Bridge, The (Amants du Pont-Neuf, Les) (1991)'
p1915
S'0101318'
p1916
sS"Widows' Peak (1994)"
p1917
S'0111712'
p1918
sS'Fly, The (1986)'
p1919
S'0091064'
p1920
sS'3 Ninjas: High Noon On Mega Mountain (1998)'
p1921
S'0118539'
p1922
sS'Haunted Honeymoon (1986)'
p1923
S'0091178'
p1924
sS'View to a Kill, A (1985)'
p1925
S'0090264'
p1926
sS'Booty Call (1997)'
p1927
S'0118750'
p1928
sS'Out of Sight (1998)'
p1929
S'0120780'
p1930
sS"When the Cat's Away (Chacun cherche son chat) (1996)"
p1931
S'0115856'
p1932
sS'Pi (1998)'
p1933
S'0138704'
p1934
sS'Candyman: Farewell to the Flesh (1995)'
p1935
S'0112625'
p1936
sS'Trust (1990)'
p1937
S'0103130'
p1938
sS'Rage: Carrie 2, The (1999)'
p1939
S'0144814'
p1940
sS'Only You (1994)'
p1941
S'0110737'
p1942
sS'Death Becomes Her (1992)'
p1943
S'0104070'
p1944
sS'Disclosure (1994)'
p1945
S'0109635'
p1946
sS'Sister Act 2: Back in the Habit (1993)'
p1947
S'0108147'
p1948
sS'Papillon (1973)'
p1949
S'0070511'
p1950
sS'Get Real (1998)'
p1951
S'0162973'
p1952
sS'Under Siege 2: Dark Territory (1995)'
p1953
S'0114781'
p1954
sS'Firm, The (1993)'
p1955
S'0106918'
p1956
sS'Batman & Robin (1997)'
p1957
S'0118688'
p1958
sS'Bad Seed, The (1956)'
p1959
S'0048977'
p1960
sS'Borrowers, The (1997)'
p1961
S'6173652'
p1962
sS'El D\xc3\xada de la Bestia (Day of the Beast, The) (1995)'
p1963
S'0112922'
p1964
sS'Allan Quatermain and the Lost City of Gold (1987)'
p1965
S'0092534'
p1966
sS'House of the Spirits, The (1993)'
p1967
S'0107151'
p1968
sS'Old Lady Who Walked in the Sea, The (Vieille qui marchait dans la mer, La) (1991)'
p1969
S'0103207'
p1970
sS'Escape from New York (1981)'
p1971
S'0082340'
p1972
sS"Wayne's World 2 (1993)"
p1973
S'0108525'
p1974
sS"Cats Don't Dance (1997)"
p1975
S'0118829'
p1976
sS'Geronimo: An American Legend (1993)'
p1977
S'0107004'
p1978
sS'Boy Who Could Fly, The (1986)'
p1979
S'0090768'
p1980
sS'Mimic (1997)'
p1981
S'0119675'
p1982
sS'Night of the Living Dead (1968)'
p1983
S'0063350'
p1984
sS'Holiday Inn (1942)'
p1985
S'0034862'
p1986
sS'City Lights (1931)'
p1987
S'0021749'
p1988
sS'Polish Wedding (1998)'
p1989
S'0119910'
p1990
sS'Wallace & Gromit: A Close Shave (1995)'
p1991
S'0112691'
p1992
sS'Romeo Is Bleeding (1993)'
p1993
S'0107983'
p1994
sS'Fall (1997)'
p1995
S'0119098'
p1996
sS"Cat's Eye (1985)"
p1997
S'0088889'
p1998
sS'Prophecy, The (1995)'
p1999
S'0114194'
p2000
sS'Clueless (1995)'
p2001
S'0112697'
p2002
sS'Children of the Corn III (1994)'
p2003
S'0109415'
p2004
sS"Barney's Great Adventure (1998)"
p2005
S'0120598'
p2006
sS"Boys Don't Cry (1999)"
p2007
S'0171804'
p2008
sS'Damsel in Distress, A (1937)'
p2009
S'0028757'
p2010
sS'Flubber (1997)'
p2011
S'0119137'
p2012
sS'Big Squeeze, The (1996)'
p2013
S'0115680'
p2014
sS"Rosemary's Baby (1968)"
p2015
S'0063522'
p2016
sS"Devil's Own, The (1997)"
p2017
S'0118972'
p2018
sS'Secret Adventures of Tom Thumb, The (1993)'
p2019
S'0108069'
p2020
sS"Bustin' Loose (1981)"
p2021
S'0082121'
p2022
sS'Vanya on 42nd Street (1994)'
p2023
S'0111590'
p2024
sS'Miracle on 34th Street (1947)'
p2025
S'0039628'
p2026
sS'Cops and Robbersons (1994)'
p2027
S'0109480'
p2028
sS'Gordy (1995)'
p2029
S'0113199'
p2030
sS'My Son the Fanatic (1997)'
p2031
S'0119743'
p2032
sS'Star Wars: Episode V - The Empire Strikes Back (1980)'
p2033
S'0080684'
p2034
sS'13th Warrior, The (1999)'
p2035
S'0120657'
p2036
sS'Mr. Jealousy (1997)'
p2037
S'0119717'
p2038
sS'Full Monty, The (1997)'
p2039
S'0119164'
p2040
sS'Cobb (1994)'
p2041
S'0109450'
p2042
sS'Little Rascals, The (1994)'
p2043
S'3633424'
p2044
sS'Drive Me Crazy (1999)'
p2045
S'0164114'
p2046
sS'Hitch-Hiker, The (1953)'
p2047
S'5496072'
p2048
sS'King of Masks, The (Bian Lian) (1996)'
p2049
S'0115669'
p2050
sS'20,000 Leagues Under the Sea (1954)'
p2051
S'0046672'
p2052
sS'Alvarez Kelly (1966)'
p2053
S'0060095'
p2054
sS'Gingerbread Man, The (1998)'
p2055
S'6173478'
p2056
sS'Young Guns (1988)'
p2057
S'0096487'
p2058
sS'Postman, The (1997)'
p2059
S'0119925'
p2060
sS'All Things Fair (Lust och f\xc3\xa4gring stor) (1995)'
p2061
S'0113720'
p2062
sS'Slingshot, The (K\xc3\xa5disbellan) (1993)'
p2063
S'0107349'
p2064
sS'Alphaville (Alphaville, une \xc3\xa9trange aventure de Lemmy Caution) (1965)'
p2065
S'0058898'
p2066
sS"Killer's Kiss (1955)"
p2067
S'0048254'
p2068
sS'Romper Stomper (1992)'
p2069
S'0105275'
p2070
sS'Dangerous Ground (1997)'
p2071
S'0118927'
p2072
sS'Jackal, The (1997)'
p2073
S'0119395'
p2074
sS'Naked in New York (1994)'
p2075
S'0110623'
p2076
sS'Renaissance Man (1994)'
p2077
S'0110971'
p2078
sS'Ninth Gate, The (1999)'
p2079
S'0142688'
p2080
sS'Three Colors: Blue (Trois couleurs: Bleu) (1993)'
p2081
S'0108394'
p2082
sS'Ninotchka (1939)'
p2083
S'0031725'
p2084
sS'And the Band Played On (1993)'
p2085
S'0106273'
p2086
sS'Touch of Evil (1958)'
p2087
S'0052311'
p2088
sS'Beyond the Mat (1999)'
p2089
S'0218043'
p2090
sS'Alive (1993)'
p2091
S'0106246'
p2092
sS'Blade (1998)'
p2093
S'0120611'
p2094
sS'Needful Things (1993)'
p2095
S'0107665'
p2096
sS'Madame Butterfly (1995)'
p2097
S'0113731'
p2098
sS"Smilla's Sense of Snow (1997)"
p2099
S'0120152'
p2100
sS'Blue Streak (1999)'
p2101
S'0181316'
p2102
sS'City, The (Ciudad, La) (1998)'
p2103
S'0159206'
p2104
sS"Things to Do in Denver When You're Dead (1995)"
p2105
S'0114660'
p2106
sS'Enchanted April (1992)'
p2107
S'5633042'
p2108
sS'Halloween (1978)'
p2109
S'0077651'
p2110
sS'Insider, The (1999)'
p2111
S'0140352'
p2112
sS'Quest, The (1996)'
p2113
S'1655606'
p2114
sS'House II: The Second Story (1987)'
p2115
S'0093220'
p2116
sS'Larger Than Life (1996)'
p2117
S'0116823'
p2118
sS'Breaking Away (1979)'
p2119
S'0078902'
p2120
sS'Under the Rainbow (1981)'
p2121
S'0083254'
p2122
sS'French Twist (Gazon maudit) (1995)'
p2123
S'0113149'
p2124
sS'Casablanca (1942)'
p2125
S'0034583'
p2126
sS'Savage Nights (Nuits fauves, Les) (1992)'
p2127
S'0105032'
p2128
sS'Different for Girls (1996)'
p2129
S'0116102'
p2130
sS'Three Days of the Condor (3 Days of the Condor) (1975)'
p2131
S'0073802'
p2132
sS'D2: The Mighty Ducks (1994)'
p2133
S'0109520'
p2134
sS'Armed and Dangerous (1986)'
p2135
S'0090660'
p2136
sS'My Science Project (1985)'
p2137
S'0089652'
p2138
sS'Chungking Express (Chung Hing sam lam) (1994)'
p2139
S'0109424'
p2140
sS'Hudsucker Proxy, The (1994)'
p2141
S'0476515'
p2142
sS'Lord of Illusions (1995)'
p2143
S'0113690'
p2144
sS'Amistad (1997)'
p2145
S'0118607'
p2146
sS'Night Falls on Manhattan (1996)'
p2147
S'0119783'
p2148
sS'Kiss the Girls (1997)'
p2149
S'0119468'
p2150
sS'Velocity of Gary, The (1998)'
p2151
S'0120878'
p2152
sS'Month by the Lake, A (1995)'
p2153
S'0113849'
p2154
sS'West Side Story (1961)'
p2155
S'0055614'
p2156
sS'Carrington (1995)'
p2157
S'0112637'
p2158
sS'Jack Frost (1998)'
p2159
S'0141109'
p2160
sS'October Sky (1999)'
p2161
S'0132477'
p2162
sS'Nixon (1995)'
p2163
S'0113987'
p2164
sS'Coneheads (1993)'
p2165
S'0106598'
p2166
sS'This Is My Father (1998)'
p2167
S'0120865'
p2168
sS'Grand Illusion (La grande illusion) (1937)'
p2169
S'0028950'
p2170
sS'Bonfire of the Vanities (1990)'
p2171
S'0099165'
p2172
sS'French Connection, The (1971)'
p2173
S'3971264'
p2174
sS'Legend (1985)'
p2175
S'0089469'
p2176
sS'Crocodile Dundee (1986)'
p2177
S'0090555'
p2178
sS'Desert Bloom (1986)'
p2179
S'0090934'
p2180
sS'Road to Wellville, The (1994)'
p2181
S'6144064'
p2182
sS'Fargo (1996)'
p2183
S'0116282'
p2184
sS"Jason's Lyric (1994)"
p2185
S'0110186'
p2186
sS'In the Company of Men (1997)'
p2187
S'0119361'
p2188
sS'Next Friday (2000)'
p2189
S'0195945'
p2190
sS'Far From Home: The Adventures of Yellow Dog (1995)'
p2191
S'0113028'
p2192
sS'My Left Foot (1989)'
p2193
S'0097937'
p2194
sS'Henry V (1989)'
p2195
S'0097499'
p2196
sS"Devil's Advocate, The (1997)"
p2197
S'0118971'
p2198
sS'Pork Chop Hill (1959)'
p2199
S'0053183'
p2200
sS"Blackbeard's Ghost (1968)"
p2201
S'0062737'
p2202
sS'Tales from the Darkside: The Movie (1990)'
p2203
S'0100740'
p2204
sS'Flight of the Navigator (1986)'
p2205
S'0091059'
p2206
sS'Going My Way (1944)'
p2207
S'0036872'
p2208
sS'Firestorm (1998)'
p2209
S'0120670'
p2210
sS'Kurt & Courtney (1998)'
p2211
S'0138563'
p2212
sS'Searchers, The (1956)'
p2213
S'0049730'
p2214
sS'Distinguished Gentleman, The (1992)'
p2215
S'0104114'
p2216
sS'Gang Related (1997)'
p2217
S'0118900'
p2218
sS'Kids in the Hall: Brain Candy (1996)'
p2219
S'0116768'
p2220
sS'Emerald Forest, The (1985)'
p2221
S'0089087'
p2222
sS'Ballad of Narayama, The (Narayama Bushiko) (1958)'
p2223
S'0051980'
p2224
sS'RoboCop 3 (1993)'
p2225
S'0107978'
p2226
sS'American President, The (1995)'
p2227
S'0112346'
p2228
sS'My Tutor (1983)'
p2229
S'0085980'
p2230
sS'Peacemaker, The (1997)'
p2231
S'0418117'
p2232
sS'Deceiver (1997)'
p2233
S'0119527'
p2234
sS'Oxygen (1999)'
p2235
S'0160620'
p2236
sS'Date with an Angel (1987)'
p2237
S'0092834'
p2238
sS'Ruling Class, The (1972)'
p2239
S'0069198'
p2240
sS'Faster Pussycat! Kill! Kill! (1965)'
p2241
S'1276114'
p2242
sS"Breakfast at Tiffany's (1961)"
p2243
S'0054698'
p2244
sS'Stars and Bars (1988)'
p2245
S'0096166'
p2246
sS'Mystery Men (1999)'
p2247
S'0132347'
p2248
sS'Conan the Barbarian (1982)'
p2249
S'0082198'
p2250
sS'Police Academy (1984)'
p2251
S'0087928'
p2252
sS"St. Elmo's Fire (1985)"
p2253
S'0090060'
p2254
sS'Brother, Can You Spare a Dime? (1975)'
p2255
S'0072742'
p2256
sS'Where the Buffalo Roam (1980)'
p2257
S'0081748'
p2258
sS'Funny Face (1957)'
p2259
S'0050419'
p2260
sS'Kansas City (1996)'
p2261
S'0116745'
p2262
sS'Lethal Weapon 2 (1989)'
p2263
S'0097733'
p2264
sS'Flirt (1995)'
p2265
S'0113080'
p2266
sS"Don't Look in the Basement! (1973)"
p2267
S'0069994'
p2268
sS'Frighteners, The (1996)'
p2269
S'0116365'
p2270
sS'Star Trek III: The Search for Spock (1984)'
p2271
S'0088170'
p2272
sS'Dick (1999)'
p2273
S'0144168'
p2274
sS'Three Wishes (1995)'
p2275
S'0114663'
p2276
sS"Bug's Life, A (1998)"
p2277
S'0120623'
p2278
sS'SLC Punk! (1998)'
p2279
S'0133189'
p2280
sS'American History X (1998)'
p2281
S'0120586'
p2282
sS'Great Expectations (1998)'
p2283
S'0119223'
p2284
sS'Rocky (1976)'
p2285
S'0075148'
p2286
sS'Philadelphia (1993)'
p2287
S'0107818'
p2288
sS'Buddy Holly Story, The (1978)'
p2289
S'0077280'
p2290
sS'Fatal Attraction (1987)'
p2291
S'0093010'
p2292
sS'Natural, The (1984)'
p2293
S'0087781'
p2294
sS'Breakfast of Champions (1999)'
p2295
S'0120618'
p2296
sS'Spanish Prisoner, The (1997)'
p2297
S'0120176'
p2298
sS'General, The (1926)'
p2299
S'1574048'
p2300
sS'Live Flesh (Carne tr\xc3\xa9mula) (1997)'
p2301
S'0118819'
p2302
sS'Frankenstein Meets the Wolf Man (1943)'
p2303
S'0035899'
p2304
sS'Heidi Fleiss: Hollywood Madam (1995)'
p2305
S'0113283'
p2306
sS'Ghosts of Mississippi (1996)'
p2307
S'0116410'
p2308
sS'Spaceballs (1987)'
p2309
S'0094012'
p2310
sS'Nashville (1975)'
p2311
S'0073440'
p2312
sS'Rugrats Movie, The (1998)'
p2313
S'0134067'
p2314
sS'Blue Velvet (1986)'
p2315
S'0090756'
p2316
sS'Home Fries (1998)'
p2317
S'0119304'
p2318
sS'I, the Worst of All (Yo, la peor de todas) (1990)'
p2319
S'0100990'
p2320
sS'True Crime (1999)'
p2321
S'0139668'
p2322
sS'Trading Places (1983)'
p2323
S'0086465'
p2324
sS'Sunset Park (1996)'
p2325
S'0117784'
p2326
sS'Proposition, The (1998)'
p2327
S'0120108'
p2328
sS'C\xc3\xa9r\xc3\xa9monie, La (1995)'
p2329
S'0112769'
p2330
sS'Fugitive, The (1993)'
p2331
S'0106977'
p2332
sS'Breaking the Waves (1996)'
p2333
S'0115751'
p2334
sS'Frenzy (1972)'
p2335
S'0068611'
p2336
sS'Paris Is Burning (1990)'
p2337
S'0100332'
p2338
sS'Specialist, The (1994)'
p2339
S'0111255'
p2340
sS'Cup, The (Ph\xc3\xb6rpa) (1999)'
p2341
S'0201840'
p2342
sS'Last Man Standing (1996)'
p2343
S'0116830'
p2344
sS'Battling Butler (1926)'
p2345
S'0016630'
p2346
sS'Strangeland (1998)'
p2347
S'0124102'
p2348
sS'Day the Earth Stood Still, The (1951)'
p2349
S'0970416'
p2350
sS'\xc2\xa1Three Amigos! (1986)'
p2351
S'0092086'
p2352
sS'Thing, The (1982)'
p2353
S'0084787'
p2354
sS'Last Days of Disco, The (1998)'
p2355
S'0120728'
p2356
sS'Double Happiness (1994)'
p2357
S'0109655'
p2358
sS'Blair Witch Project, The (1999)'
p2359
S'0185937'
p2360
sS"Child's Play (1988)"
p2361
S'0094862'
p2362
sS'City of Industry (1997)'
p2363
S'0118859'
p2364
sS'Dances with Wolves (1990)'
p2365
S'0099348'
p2366
sS'Fantastic Planet, The (Plan\xc3\xa8te sauvage, La) (1973)'
p2367
S'0070544'
p2368
sS'Rocketeer, The (1991)'
p2369
S'0102803'
p2370
sS'Cold Comfort Farm (1995)'
p2371
S'0112701'
p2372
sS'Maurice (1987)'
p2373
S'0093512'
p2374
sS'Once Upon a Time... When We Were Colored (1995)'
p2375
S'0114039'
p2376
sS'54 (1998)'
p2377
S'0120577'
p2378
sS'Daytrippers, The (1996)'
p2379
S'0116041'
p2380
sS'Halloween III: Season of the Witch (1982)'
p2381
S'0085636'
p2382
sS'Iron Eagle II (1988)'
p2383
S'0095382'
p2384
sS'Big Sleep, The (1946)'
p2385
S'0038355'
p2386
sS'War of the Worlds, The (1953)'
p2387
S'2507628'
p2388
sS'Hunchback of Notre Dame, The (1996)'
p2389
S'0116583'
p2390
sS'Passion in the Desert (1998)'
p2391
S'0125980'
p2392
sS'Play it to the Bone (1999)'
p2393
S'0196857'
p2394
sS'Tingler, The (1959)'
p2395
S'0053363'
p2396
sS'39 Steps, The (1935)'
p2397
S'0026029'
p2398
sS'Tales from the Crypt Presents: Bordello of Blood (1996)'
p2399
S'0117826'
p2400
sS'Liberty Heights (1999)'
p2401
S'0165859'
p2402
sS'Ace Ventura: Pet Detective (1994)'
p2403
S'0109040'
p2404
sS'Boys from Brazil, The (1978)'
p2405
S'0077269'
p2406
sS'Hideous Kinky (1998)'
p2407
S'0136244'
p2408
sS'Winter Guest, The (1997)'
p2409
S'0120521'
p2410
sS'Richie Rich (1994)'
p2411
S'0110989'
p2412
sS'Outlaw, The (1943)'
p2413
S'0036241'
p2414
sS'Annie Hall (1977)'
p2415
S'0075686'
p2416
sS'Christine (1983)'
p2417
S'0085333'
p2418
sS'Guilty as Sin (1993)'
p2419
S'0107057'
p2420
sS'Andre (1994)'
p2421
S'0109120'
p2422
sS'Mr. Nice Guy (Yat goh ho yan) (1997)'
p2423
S'0117786'
p2424
sS'Waiting for Guffman (1996)'
p2425
S'0118111'
p2426
sS'Saint of Fort Washington, The (1993)'
p2427
S'0108026'
p2428
sS'Mr. Death: The Rise and Fall of Fred A. Leuchter, Jr. (1999)'
p2429
S'0192335'
p2430
sS'Believers, The (1987)'
p2431
S'0241357'
p2432
sS'Cruise, The (1998)'
p2433
S'0150230'
p2434
sS'Dear God (1996)'
p2435
S'0116059'
p2436
sS'Cape Fear (1991)'
p2437
S'0101540'
p2438
sS'NeverEnding Story III, The (1994)'
p2439
S'0110647'
p2440
sS'Kissing a Fool (1998)'
p2441
S'0120723'
p2442
sS'Blame It on Rio (1984)'
p2443
S'0086973'
p2444
sS'Don Juan DeMarco (1995)'
p2445
S'0112883'
p2446
sS'Psycho (1998)'
p2447
S'0155975'
p2448
sS'Blue Sky (1994)'
p2449
S'0109306'
p2450
sS'Smile Like Yours, A (1997)'
p2451
S'0120151'
p2452
sS'Stop! Or My Mom Will Shoot (1992)'
p2453
S'0105477'
p2454
sS'Commandments (1997)'
p2455
S'0115927'
p2456
sS'Gung Ho (1986)'
p2457
S'0091159'
p2458
sS'Apple Dumpling Gang Rides Again, The (1979)'
p2459
S'0078790'
p2460
sS'Torn Curtain (1966)'
p2461
S'0061107'
p2462
sS'Charlie, the Lonesome Cougar (1967)'
p2463
S'0062793'
p2464
sS'Dadetown (1995)'
p2465
S'0112777'
p2466
sS'Goonies, The (1985)'
p2467
S'0089218'
p2468
sS'Designated Mourner, The (1997)'
p2469
S'0118964'
p2470
sS'Minus Man, The (1999)'
p2471
S'0151582'
p2472
sS'Michael Collins (1996)'
p2473
S'0117039'
p2474
sS'Hotel de Love (1996)'
p2475
S'0116565'
p2476
sS'Major Payne (1995)'
p2477
S'0110443'
p2478
sS"2 ou 3 choses que je sais d'elle (2 or 3 Things I Know About Her) (1967)"
p2479
S'0060304'
p2480
sS'Blood Feast (1963)'
p2481
S'0056875'
p2482
sS'Quiet Room, The (1996)'
p2483
S'0117422'
p2484
sS'Indian in the Cupboard, The (1995)'
p2485
S'0113419'
p2486
sS'Father of the Bride (1950)'
p2487
S'0042451'
p2488
sS'Faust (1994)'
p2489
S'0111959'
p2490
sS'Dog Day Afternoon (1975)'
p2491
S'0072890'
p2492
sS'Dancing at Lughnasa (1998)'
p2493
S'0120643'
p2494
sS"Heaven's Prisoners (1996)"
p2495
S'0116508'
p2496
sS'Boys Life (1995)'
p2497
S'0164317'
p2498
sS'Parent Trap, The (1998)'
p2499
S'5289808'
p2500
sS"Let's Get Harry (1986)"
p2501
S'0091400'
p2502
sS'Happiness (1998)'
p2503
S'0147612'
p2504
sS'Nadine (1987)'
p2505
S'0093596'
p2506
sS'Shadrach (1998)'
p2507
S'0144604'
p2508
sS'Baby-Sitters Club, The (1995)'
p2509
S'0112435'
p2510
sS'Big Combo, The (1955)'
p2511
S'0047878'
p2512
sS'Man Facing Southeast (Hombre mirando al sudeste) (1986)'
p2513
S'0091214'
p2514
sS'Nine Months (1995)'
p2515
S'0113986'
p2516
sS'Quiet Man, The (1952)'
p2517
S'0045061'
p2518
sS'Everest (1998)'
p2519
S'0120661'
p2520
sS'Boogie Nights (1997)'
p2521
S'0118749'
p2522
sS'Con Air (1997)'
p2523
S'0118880'
p2524
sS'Your Friends and Neighbors (1998)'
p2525
S'1576523'
p2526
sS'Friday the 13th Part VIII: Jason Takes Manhattan (1989)'
p2527
S'0097388'
p2528
sS'Virus (1999)'
p2529
S'0120458'
p2530
sS'Primary Colors (1998)'
p2531
S'0119942'
p2532
sS"I'll Do Anything (1994)"
p2533
S'0110097'
p2534
sS'Rescuers Down Under, The (1990)'
p2535
S'0100477'
p2536
sS'Evil Dead II (Dead by Dawn) (1987)'
p2537
S'0092991'
p2538
sS'Return of Jafar, The (1994)'
p2539
S'0107952'
p2540
sS'Fierce Creatures (1997)'
p2541
S'0119115'
p2542
sS'New Rose Hotel (1998)'
p2543
S'0133122'
p2544
sS'Fear and Loathing in Las Vegas (1998)'
p2545
S'0120669'
p2546
sS'Office Space (1999)'
p2547
S'0151804'
p2548
sS'3 Strikes (2000)'
p2549
S'0199290'
p2550
sS'Awakenings (1990)'
p2551
S'0099077'
p2552
sS'Harry and the Hendersons (1987)'
p2553
S'0093148'
p2554
sS'Burnt Offerings (1976)'
p2555
S'0074258'
p2556
sS'Children of the Damned (1963)'
p2557
S'0056931'
p2558
sS'Madeline (1998)'
p2559
S'0123987'
p2560
sS'Walk in the Clouds, A (1995)'
p2561
S'0114887'
p2562
sS'Peggy Sue Got Married (1986)'
p2563
S'0091738'
p2564
sS'Knock Off (1998)'
p2565
S'0120724'
p2566
sS'Addicted to Love (1997)'
p2567
S'0118556'
p2568
sS'Dead Presidents (1995)'
p2569
S'0112819'
p2570
sS'Repulsion (1965)'
p2571
S'0059646'
p2572
sS'Anna and the King (1999)'
p2573
S'0166485'
p2574
sS'Medicine Man (1992)'
p2575
S'0104839'
p2576
sS'Dark City (1998)'
p2577
S'0118929'
p2578
sS'Shiloh (1997)'
p2579
S'6173324'
p2580
sS'To Have, or Not (En avoir (ou pas)) (1995)'
p2581
S'0112951'
p2582
sS'Incognito (1997)'
p2583
S'0119365'
p2584
sS'Last Temptation of Christ, The (1988)'
p2585
S'0095497'
p2586
sS'Class Reunion (1982)'
p2587
S'0084395'
p2588
sS'Room at the Top (1959)'
p2589
S'0053226'
p2590
sS'Boys Life 2 (1997)'
p2591
S'0118762'
p2592
sS"Razor's Edge, The (1984)"
p2593
S'5895120'
p2594
sS'To Kill a Mockingbird (1962)'
p2595
S'0056592'
p2596
sS'Apartment, The (1960)'
p2597
S'1819509'
p2598
sS'Striking Distance (1993)'
p2599
S'0108238'
p2600
sS'Time to Kill, A (1996)'
p2601
S'4439176'
p2602
sS'Circle of Friends (1995)'
p2603
S'0112679'
p2604
sS'American Werewolf in Paris, An (1997)'
p2605
S'0118604'
p2606
sS'Real Genius (1985)'
p2607
S'0089886'
p2608
sS'My Fellow Americans (1996)'
p2609
S'0117119'
p2610
sS'Star Wars: Episode IV - A New Hope (1977)'
p2611
S'0076759'
p2612
sS"Hard Day's Night, A (1964)"
p2613
S'0058182'
p2614
sS'Under Siege (1992)'
p2615
S'0105690'
p2616
sS"She's So Lovely (1997)"
p2617
S'0120112'
p2618
sS'Tokyo Fist (Tokyo ken) (1995)'
p2619
S'0114690'
p2620
sS'Peter Pan (1953)'
p2621
S'0046183'
p2622
sS'Golden Earrings (1947)'
p2623
S'0039428'
p2624
sS'Never Talk to Strangers (1995)'
p2625
S'0113965'
p2626
sS'GoldenEye (1995)'
p2627
S'0113189'
p2628
sS'Anastasia (1997)'
p2629
S'0118617'
p2630
sS'Private Benjamin (1980)'
p2631
S'0081375'
p2632
sS'Muppet Movie, The (1979)'
p2633
S'0079588'
p2634
sS'Guinevere (1999)'
p2635
S'0160338'
p2636
sS'Cheetah (1989)'
p2637
S'0097053'
p2638
sS'Tron (1982)'
p2639
S'0084827'
p2640
sS'Dream With the Fishes (1997)'
p2641
S'0119019'
p2642
sS'Toy Story 2 (1999)'
p2643
S'0120363'
p2644
sS'Steam: The Turkish Bath (Hamam) (1997)'
p2645
S'0119248'
p2646
sS'Freeway (1996)'
p2647
S'0116361'
p2648
sS'Fallen (1998)'
p2649
S'0119099'
p2650
sS'Daens (1992)'
p2651
S'0104046'
p2652
sS"Logan's Run (1976)"
p2653
S'0074812'
p2654
sS'Seventh Heaven (Septi\xc3\xa8me ciel, Le) (1997)'
p2655
S'0124115'
p2656
sS'Grease (1978)'
p2657
S'0077631'
p2658
sS'Titanic (1997)'
p2659
S'0120338'
p2660
sS'Slums of Beverly Hills, The (1998)'
p2661
S'0120831'
p2662
sS'Repossessed (1990)'
p2663
S'0100475'
p2664
sS'Mary Reilly (1996)'
p2665
S'0117002'
p2666
sS'Midnight Cowboy (1969)'
p2667
S'0064665'
p2668
sS'Alligator (1980)'
p2669
S'0080354'
p2670
sS'Victor/Victoria (1982)'
p2671
S'0084865'
p2672
sS'Ice Storm, The (1997)'
p2673
S'0119349'
p2674
sS'Nico Icon (1995)'
p2675
S'0113973'
p2676
sS'Bridge on the River Kwai, The (1957)'
p2677
S'0050212'
p2678
sS'Spice World (1997)'
p2679
S'0120185'
p2680
sS'Angus (1995)'
p2681
S'0112368'
p2682
sS'Liar Liar (1997)'
p2683
S'0119528'
p2684
sS'Titus (1999)'
p2685
S'0120866'
p2686
sS'Pulp Fiction (1994)'
p2687
S'0110912'
p2688
sS'Dumbo (1941)'
p2689
S'0033563'
p2690
sS'Love and a .45 (1994)'
p2691
S'0110395'
p2692
sS'This World, Then the Fireworks (1997)'
p2693
S'0117898'
p2694
sS'Earthquake (1974)'
p2695
S'0071455'
p2696
sS'Stealing Home (1988)'
p2697
S'0096171'
p2698
sS'Foxfire (1996)'
p2699
S'0116353'
p2700
sS'Haunted World of Edward D. Wood Jr., The (1996)'
p2701
S'0113270'
p2702
sS'My Favorite Martian (1999)'
p2703
S'0120764'
p2704
sS'Jack (1996)'
p2705
S'0116669'
p2706
sS'Blackmail (1929)'
p2707
S'0019702'
p2708
sS'World of Apu, The (Apur Sansar) (1959)'
p2709
S'0052572'
p2710
sS'Goldfinger (1964)'
p2711
S'0058150'
p2712
sS"Concorde: Airport '79, The (1979)"
p2713
S'0078740'
p2714
sS'Hanging Up (2000)'
p2715
S'0162983'
p2716
sS'Visitors, The (Visiteurs, Les) (1993)'
p2717
S'0108500'
p2718
sS'Fast Times at Ridgemont High (1982)'
p2719
S'0083929'
p2720
sS'American Graffiti (1973)'
p2721
S'0069704'
p2722
sS'Ben-Hur (1959)'
p2723
S'0052618'
p2724
sS'Snake Eyes (1998)'
p2725
S'0120832'
p2726
sS'Patch Adams (1998)'
p2727
S'0129290'
p2728
sS'Fright Night (1985)'
p2729
S'0089175'
p2730
sS'Rhyme & Reason (1997)'
p2731
S'0120014'
p2732
sS'Message in a Bottle (1999)'
p2733
S'0139462'
p2734
sS'Xiu Xiu: The Sent-Down Girl (Tian yu) (1998)'
p2735
S'0115005'
p2736
sS'Poltergeist III (1988)'
p2737
S'0095889'
p2738
sS'Far and Away (1992)'
p2739
S'0104231'
p2740
sS'Last Dance (1996)'
p2741
S'0116827'
p2742
sS'Election (1999)'
p2743
S'0126886'
p2744
sS'Muppets Take Manhattan, The (1984)'
p2745
S'0087755'
p2746
sS'Gate, The (1987)'
p2747
S'0092494'
p2748
sS'Big Tease, The (1999)'
p2749
S'0156639'
p2750
sS'Popeye (1980)'
p2751
S'0081353'
p2752
sS'Blank Check (1994)'
p2753
S'0109287'
p2754
sS'Thin Line Between Love and Hate, A (1996)'
p2755
S'0117891'
p2756
sS'Modulations (1998)'
p2757
S'0139468'
p2758
sS'Armour of God II: Operation Condor (Operation Condor) (Fei ying gai wak) (1991)'
p2759
S'0099558'
p2760
sS'All Quiet on the Western Front (1930)'
p2761
S'0020629'
p2762
sS'Maya Lin: A Strong Clear Vision (1994)'
p2763
S'0110480'
p2764
sS"Autumn Tale, An (Conte d'automne) (1998)"
p2765
S'0137439'
p2766
sS'Sgt. Bilko (1996)'
p2767
S'0117608'
p2768
sS'Radio Days (1987)'
p2769
S'0093818'
p2770
sS'Friday the 13th Part VI: Jason Lives (1986)'
p2771
S'0091080'
p2772
sS'Shaggy Dog, The (1959)'
p2773
S'2132787'
p2774
sS'Mission to Mars (2000)'
p2775
S'0183523'
p2776
sS"Jupiter's Wife (1994)"
p2777
S'0110217'
p2778
sS'Double Life of Veronique, The (Double Vie de V\xc3\xa9ronique, La) (1991)'
p2779
S'0101765'
p2780
sS'Corrina, Corrina (1994)'
p2781
S'0109484'
p2782
sS'Threesome (1994)'
p2783
S'0111418'
p2784
sS'Tank Girl (1995)'
p2785
S'0114614'
p2786
sS'Deadly Friend (1986)'
p2787
S'0090917'
p2788
sS'Free Willy 3: The Rescue (1997)'
p2789
S'0119152'
p2790
sS'American Buffalo (1996)'
p2791
S'0115530'
p2792
sS'Tarzan the Fearless (1933)'
p2793
S'0024645'
p2794
sS'Prophecy II, The (1998)'
p2795
S'0118643'
p2796
sS'Problem Child (1990)'
p2797
S'0100419'
p2798
sS'Barefoot Executive, The (1971)'
p2799
S'0066811'
p2800
sS'Jeremiah Johnson (1972)'
p2801
S'0068762'
p2802
sS'Ulysses (Ulisse) (1954)'
p2803
S'0047630'
p2804
sS'My Man Godfrey (1957)'
p2805
S'0050738'
p2806
sS'Cruel Intentions (1999)'
p2807
S'0139134'
p2808
sS'SubUrbia (1997)'
p2809
S'6173150'
p2810
sS'Cook the Thief His Wife & Her Lover, The (1989)'
p2811
S'0097108'
p2812
sS'Picnic (1955)'
p2813
S'0048491'
p2814
sS'Big One, The (1997)'
p2815
S'0124295'
p2816
sS'Princess Bride, The (1987)'
p2817
S'3834590'
p2818
sS'Dial M for Murder (1954)'
p2819
S'0046912'
p2820
sS'Sheltering Sky, The (1990)'
p2821
S'0100594'
p2822
sS'Mis\xc3\xa9rables, Les (1998)'
p2823
S'0119683'
p2824
sS'Congo (1995)'
p2825
S'0112715'
p2826
sS'Still Crazy (1998)'
p2827
S'0149151'
p2828
sS'Airplane II: The Sequel (1982)'
p2829
S'0083530'
p2830
sS'Venice/Venice (1992)'
p2831
S'0105729'
p2832
sS'Indiana Jones and the Temple of Doom (1984)'
p2833
S'0087469'
p2834
sS'Three Musketeers, The (1993)'
p2835
S'0232399'
p2836
sS'Year of Living Dangerously, The (1982)'
p2837
S'0086617'
p2838
sS'Stiff Upper Lips (1998)'
p2839
S'0120210'
p2840
sS'Curse of Frankenstein, The (1957)'
p2841
S'0050280'
p2842
sS'Planet of the Apes (1968)'
p2843
S'0063442'
p2844
sS'Joy Luck Club, The (1993)'
p2845
S'1929928'
p2846
sS'Snow Falling on Cedars (1999)'
p2847
S'0120834'
p2848
sS'Sunchaser, The (1996)'
p2849
S'0117781'
p2850
sS'Another Stakeout (1993)'
p2851
S'0106292'
p2852
sS'Wide Awake (1998)'
p2853
S'0120510'
p2854
sS'Star Trek V: The Final Frontier (1989)'
p2855
S'0098382'
p2856
sS'Cocoon: The Return (1988)'
p2857
S'0094890'
p2858
sS'Gabbeh (1996)'
p2859
S'0116384'
p2860
sS'M\xc3\xa9tisse (Caf\xc3\xa9 au Lait) (1993)'
p2861
S'0107642'
p2862
sS'Scream (1996)'
p2863
S'0117571'
p2864
sS'Secret of Roan Inish, The (1994)'
p2865
S'0111112'
p2866
sS'Big Bully (1996)'
p2867
S'0115676'
p2868
sS'BASEketball (1998)'
p2869
S'0131857'
p2870
sS'Hanging Garden, The (1997)'
p2871
S'0125128'
p2872
sS'Pajama Game, The (1957)'
p2873
S'0050814'
p2874
sS'Manchurian Candidate, The (1962)'
p2875
S'0368008'
p2876
sS'Insomnia (1997)'
p2877
S'0119375'
p2878
sS'Army of Darkness (1993)'
p2879
S'0106308'
p2880
sS'Nighthawks (1981)'
p2881
S'0082817'
p2882
sS'Crossing Guard, The (1995)'
p2883
S'6149508'
p2884
sS'Dick Tracy (1990)'
p2885
S'0099422'
p2886
sS'Bad Girls (1994)'
p2887
S'0109198'
p2888
sS'Star Trek II: The Wrath of Khan (1982)'
p2889
S'0084726'
p2890
sS'Mighty Peking Man (Xing xing wang) (1977)'
p2891
S'0076164'
p2892
sS'Hustler White (1996)'
p2893
S'0116587'
p2894
sS'Race the Sun (1996)'
p2895
S'0117427'
p2896
sS'X-Files: Fight the Future, The (1998)'
p2897
S'0365474'
p2898
sS'Moonstruck (1987)'
p2899
S'0093565'
p2900
sS'Bridges of Madison County, The (1995)'
p2901
S'0112579'
p2902
sS'Driving Miss Daisy (1989)'
p2903
S'0097239'
p2904
sS'Midnight Dancers (Sibak) (1994)'
p2905
S'0111180'
p2906
sS'Exotica (1994)'
p2907
S'0109759'
p2908
sS'Idle Hands (1999)'
p2909
S'0138510'
p2910
sS'Thomas Crown Affair, The (1968)'
p2911
S'0155267'
p2912
sS'Johnny Mnemonic (1995)'
p2913
S'0113481'
p2914
sS'Born Yesterday (1950)'
p2915
S'0042276'
p2916
sS'In the Line of Fire (1993)'
p2917
S'0107206'
p2918
sS'RoboCop (1987)'
p2919
S'0093870'
p2920
sS"Muriel's Wedding (1994)"
p2921
S'0110598'
p2922
sS'42 Up (1998)'
p2923
S'0164312'
p2924
sS'Safe (1995)'
p2925
S'0114323'
p2926
sS'Broadway Melody, The (1929)'
p2927
S'0019729'
p2928
sS'Paths of Glory (1957)'
p2929
S'0050825'
p2930
sS'Nil By Mouth (1997)'
p2931
S'0119792'
p2932
sS'Friday the 13th Part VII: The New Blood (1988)'
p2933
S'0095179'
p2934
sS'Truth or Consequences, N.M. (1997)'
p2935
S'0120383'
p2936
sS'Doctor Dolittle (1967)'
p2937
S'0061584'
p2938
sS'American Tail, An (1986)'
p2939
S'0090633'
p2940
sS"Margaret's Museum (1995)"
p2941
S'0113774'
p2942
sS'Talented Mr. Ripley, The (1999)'
p2943
S'0134119'
p2944
sS'Birdy (1984)'
p2945
S'0086969'
p2946
sS'Two Bits (1995)'
p2947
S'0114753'
p2948
sS'Big Blue, The (Grand bleu, Le) (1988)'
p2949
S'0095250'
p2950
sS'Aces: Iron Eagle III (1992)'
p2951
S'0103617'
p2952
sS'Pocahontas (1995)'
p2953
S'0114148'
p2954
sS'Bat, The (1959)'
p2955
S'1467571'
p2956
sS'Flamingo Kid, The (1984)'
p2957
S'0087265'
p2958
sS'Hands on a Hard Body (1996)'
p2959
S'0116481'
p2960
sS'Mighty Joe Young (1949)'
p2961
S'0041650'
p2962
sS'Adventures of Sebastian Cole, The (1998)'
p2963
S'0168449'
p2964
sS'How I Won the War (1967)'
p2965
S'0061789'
p2966
sS"My Best Friend's Wedding (1997)"
p2967
S'0119738'
p2968
sS'Fearless (1993)'
p2969
S'0106881'
p2970
sS'Atlantic City (1980)'
p2971
S'0080388'
p2972
sS'Godfather, The (1972)'
p2973
S'0068646'
p2974
sS'Taxi Driver (1976)'
p2975
S'0075314'
p2976
sS'M (1931)'
p2977
S'0022100'
p2978
sS'Robin Hood (1973)'
p2979
S'0070608'
p2980
sS"Dog's Life, A (1918)"
p2981
S'0009018'
p2982
sS'Lulu on the Bridge (1998)'
p2983
S'0125879'
p2984
sS'Mighty Morphin Power Rangers: The Movie (1995)'
p2985
S'0113820'
p2986
sS'Lovers of the Arctic Circle, The (Los Amantes del C\xc3\xadrculo Polar) (1998)'
p2987
S'0133363'
p2988
sS'Daddy Long Legs (1919)'
p2989
S'0047969'
p2990
sS'Odd Couple II, The (1998)'
p2991
S'0120773'
p2992
sS'Quest for Fire (Guerre du feu, La) (1981)'
p2993
S'0082484'
p2994
sS'Green Mile, The (1999)'
p2995
S'0120689'
p2996
sS'Taming of the Shrew, The (1967)'
p2997
S'0061407'
p2998
sS'To Die For (1995)'
p2999
S'0114681'
p3000
sS'Death and the Maiden (1994)'
p3001
S'0109579'
p3002
sS'Ballad of Narayama, The (Narayama bushiko) (1983)'
p3003
S'0084390'
p3004
sS'Adventures of Elmo in Grouchland, The (1999)'
p3005
S'0159421'
p3006
sS'Blues Brothers 2000 (1998)'
p3007
S'0118747'
p3008
sS'Killing Zoe (1994)'
p3009
S'6140916'
p3010
sS'Evening Star, The (1996)'
p3011
S'0116240'
p3012
sS'Meatballs III (1987)'
p3013
S'0093516'
p3014
sS'Wonderful, Horrible Life of Leni Riefenstahl, The (Macht der Bilder: Leni Riefenstahl, Die) (1993)'
p3015
S'0107472'
p3016
sS'Coup de torchon (Clean Slate) (1981)'
p3017
S'0082206'
p3018
sS'Free Enterprise (1998)'
p3019
S'0141105'
p3020
sS'Mrs. Dalloway (1997)'
p3021
S'0119723'
p3022
sS'Teaching Mrs. Tingle (1999)'
p3023
S'0133046'
p3024
sS'Ordinary People (1980)'
p3025
S'0081283'
p3026
sS'On the Waterfront (1954)'
p3027
S'0047296'
p3028
sS"Singin' in the Rain (1952)"
p3029
S'0045152'
p3030
sS'Promise, The (Versprechen, Das) (1995)'
p3031
S'0111613'
p3032
sS'General, The (1998)'
p3033
S'0120586'
p3034
sS'Singles (1992)'
p3035
S'0105415'
p3036
sS'Crude Oasis, The (1995)'
p3037
S'0112746'
p3038
sS'Rough Night in Jericho (1967)'
p3039
S'0062218'
p3040
sS'Cowboy Way, The (1994)'
p3041
S'0109493'
p3042
sS'Radioland Murders (1994)'
p3043
S'0110939'
p3044
sS'End of Days (1999)'
p3045
S'0146675'
p3046
sS'Barcelona (1994)'
p3047
S'0109219'
p3048
sS'Woo (1998)'
p3049
S'0120531'
p3050
sS'Feast of July (1995)'
p3051
S'0113044'
p3052
sS'Nothing But Trouble (1991)'
p3053
S'0102558'
p3054
sS"She's the One (1996)"
p3055
S'0117628'
p3056
sS'Rebel Without a Cause (1955)'
p3057
S'0048545'
p3058
sS'Carpool (1996)'
p3059
S'0115836'
p3060
sS'Manhattan Murder Mystery (1993)'
p3061
S'0107507'
p3062
sS'Lady Vanishes, The (1938)'
p3063
S'0030341'
p3064
sS'Runaway Bride (1999)'
p3065
S'0163187'
p3066
sS'Trekkies (1997)'
p3067
S'0120370'
p3068
sS'Excalibur (1981)'
p3069
S'0082348'
p3070
sS'Ravenous (1999)'
p3071
S'0129332'
p3072
sS'Jungle Book, The (1994)'
p3073
S'5511296'
p3074
sS'Die Hard: With a Vengeance (1995)'
p3075
S'0112864'
p3076
sS'Beyond Bedlam (1993)'
p3077
S'0106402'
p3078
sS'Bullets Over Broadway (1994)'
p3079
S'0109348'
p3080
sS'Addiction, The (1995)'
p3081
S'3663930'
p3082
sS'Selena (1997)'
p3083
S'0120094'
p3084
sS'Presidio, The (1988)'
p3085
S'0095897'
p3086
sS'Steamboat Willie (1928)'
p3087
S'0019422'
p3088
sS'Addams Family, The (1991)'
p3089
S'0101272'
p3090
sS'Matilda (1996)'
p3091
S'0117008'
p3092
sS'I Saw What You Did (1965)'
p3093
S'0059297'
p3094
sS'Street Fighter (1994)'
p3095
S'0111301'
p3096
sS'Dangerous Minds (1995)'
p3097
S'0112792'
p3098
sS'Jaws (1975)'
p3099
S'0073195'
p3100
sS'Jurassic Park (1993)'
p3101
S'0107290'
p3102
sS'Love and Death on Long Island (1997)'
p3103
S'0119574'
p3104
sS'Third Man, The (1949)'
p3105
S'0041959'
p3106
sS'Young and Innocent (1937)'
p3107
S'0029811'
p3108
sS'Class (1983)'
p3109
S'0085346'
p3110
sS"I'll Be Home For Christmas (1998)"
p3111
S'0155753'
p3112
sS'Some Folks Call It a Sling Blade (1993)'
p3113
S'0108181'
p3114
sS'Sanjuro (Tsubaki Sanj\xc3\xbbr\xc3\xb4) (1962)'
p3115
S'0056443'
p3116
sS'Federal Hill (1994)'
p3117
S'0109785'
p3118
sS'Indecent Proposal (1993)'
p3119
S'0107211'
p3120
sS'Hard Rain (1998)'
p3121
S'0120696'
p3122
sS'Mummy, The (1999)'
p3123
S'0120616'
p3124
sS"Ulee's Gold (1997)"
p3125
S'0120402'
p3126
sS'Plunkett & MaCleane (1999)'
p3127
S'0134033'
p3128
sS'Clockers (1995)'
p3129
S'0112688'
p3130
sS'Shop Around the Corner, The (1940)'
p3131
S'0033045'
p3132
sS'Ghostbusters II (1989)'
p3133
S'0097428'
p3134
sS'Unstrung Heroes (1995)'
p3135
S'0114798'
p3136
sS'Ruthless People (1986)'
p3137
S'0091877'
p3138
sS'Money Train (1995)'
p3139
S'0113845'
p3140
sS'Deadtime Stories (1987)'
p3141
S'2589362'
p3142
sS'Being There (1979)'
p3143
S'0078841'
p3144
sS'Persuasion (1995)'
p3145
S'0114117'
p3146
sS'Saturn 3 (1980)'
p3147
S'0079285'
p3148
sS'Commitments, The (1991)'
p3149
S'0101605'
p3150
sS'Eyes Wide Shut (1999)'
p3151
S'0120663'
p3152
sS'Trick or Treat (1986)'
p3153
S'0092112'
p3154
sS'Client, The (1994)'
p3155
S'0109446'
p3156
sS'It Came from Beneath the Sea (1955)'
p3157
S'0048215'
p3158
sS'Vampire in Brooklyn (1995)'
p3159
S'0114825'
p3160
sS'Fistful of Dollars, A (Per un pugno di dollari) (1964)'
p3161
S'0058461'
p3162
sS'Color Purple, The (1985)'
p3163
S'0379219'
p3164
sS'8MM (1999)'
p3165
S'0134273'
p3166
sS'Son of Frankenstein (1939)'
p3167
S'0031951'
p3168
sS'Morning After, The (1986)'
p3169
S'3344906'
p3170
sS'Rudy (1993)'
p3171
S'0108002'
p3172
sS"Gentleman's Agreement (1947)"
p3173
S'0039416'
p3174
sS'Amityville: A New Generation (1993)'
p3175
S'0106262'
p3176
sS'Chasers (1994)'
p3177
S'0109403'
p3178
sS'Children of the Corn (1984)'
p3179
S'0087050'
p3180
sS'8 1/2 (8\xc2\xbd) (1963)'
p3181
S'0056801'
p3182
sS'Duck Soup (1933)'
p3183
S'0023969'
p3184
sS'Wyatt Earp (1994)'
p3185
S'0111756'
p3186
sS'Live Nude Girls (1995)'
p3187
S'0113674'
p3188
sS'Nightmare on Elm Street, A (1984)'
p3189
S'0087800'
p3190
sS'Three Colors: White (Trzy kolory: Bialy) (1994)'
p3191
S'0111507'
p3192
sS'Homegrown (1998)'
p3193
S'0119305'
p3194
sS"I'm Not Rappaport (1996)"
p3195
S'0116601'
p3196
sS'Stigmata (1999)'
p3197
S'0145531'
p3198
sS'Maximum Overdrive (1986)'
p3199
S'0091499'
p3200
sS'Desperate Measures (1998)'
p3201
S'0118966'
p3202
sS'Year My Voice Broke, The (1987)'
p3203
S'0094347'
p3204
sS'Thing from Another World, The (1951)'
p3205
S'0044121'
p3206
sS'Underworld (1996)'
p3207
S'0120414'
p3208
sS'Mute Witness (1994)'
p3209
S'0110604'
p3210
sS'Airheads (1994)'
p3211
S'0109068'
p3212
sS'Black Sunday (La maschera del demonio) (1960)'
p3213
S'0054067'
p3214
sS'No Mercy (1986)'
p3215
S'0091637'
p3216
sS'Ran (1985)'
p3217
S'0089881'
p3218
sS'Cape Fear (1962)'
p3219
S'0055824'
p3220
sS'Twin Falls Idaho (1999)'
p3221
S'0162830'
p3222
sS'Mis\xc3\xa9rables, Les (1995)'
p3223
S'0113828'
p3224
sS'Six Ways to Sunday (1997)'
p3225
S'0127288'
p3226
sS'Basquiat (1996)'
p3227
S'0115632'
p3228
sS'Kicked in the Head (1997)'
p3229
S'0119457'
p3230
sS'Escape from L.A. (1996)'
p3231
S'0116225'
p3232
sS'Synthetic Pleasures (1995)'
p3233
S'0114597'
p3234
sS'My Own Private Idaho (1991)'
p3235
S'0102494'
p3236
sS'Notorious (1946)'
p3237
S'0038787'
p3238
sS'Shadow of a Doubt (1943)'
p3239
S'0036342'
p3240
sS'First Wives Club, The (1996)'
p3241
S'0116313'
p3242
sS'Jack and Sarah (1995)'
p3243
S'0113448'
p3244
sS'Much Ado About Nothing (1993)'
p3245
S'0107616'
p3246
sS'Desperately Seeking Susan (1985)'
p3247
S'0089017'
p3248
sS'Shall We Dance? (Shall We Dansu?) (1996)'
p3249
S'0117615'
p3250
sS'Payback (1999)'
p3251
S'0120784'
p3252
sS'Yards, The (2000)'
p3253
S'1858640'
p3254
sS'Bananas (1971)'
p3255
S'0066808'
p3256
sS'Pink Flamingos (1972)'
p3257
S'0069089'
p3258
sS'Superstar (1999)'
p3259
S'0167427'
p3260
sS'Murder at 1600 (1997)'
p3261
S'0119731'
p3262
sS'Joe the King (1999)'
p3263
S'0160672'
p3264
sS'Year of the Horse (1997)'
p3265
S'0120539'
p3266
sS'Repo Man (1984)'
p3267
S'0087995'
p3268
sS'EDtv (1999)'
p3269
S'0131369'
p3270
sS'Experience Preferred... But Not Essential (1982)'
p3271
S'0083911'
p3272
sS'Back to School (1986)'
p3273
S'0090685'
p3274
sS'Bringing Out the Dead (1999)'
p3275
S'0163988'
p3276
sS'Flawless (1999)'
p3277
S'0155711'
p3278
sS'Henry Fool (1997)'
p3279
S'0122529'
p3280
sS'Perez Family, The (1995)'
p3281
S'1609903'
p3282
sS'Love! Valour! Compassion! (1997)'
p3283
S'0119578'
p3284
sS'Night Flier (1997)'
p3285
S'0119784'
p3286
sS'Betrayed (1988)'
p3287
S'0094731'
p3288
sS'Sleeping Beauty (1959)'
p3289
S'0053285'
p3290
sS'Beyond Silence (Jenseits der Stille) (1996)'
p3291
S'0116692'
p3292
sS'Christmas Carol, A (1938)'
p3293
S'1067106'
p3294
sS"Kid in King Arthur's Court, A (1995)"
p3295
S'0113538'
p3296
sS'Addams Family Values (1993)'
p3297
S'0106220'
p3298
sS'What Happened Was... (1994)'
p3299
S'0111689'
p3300
sS'That Darn Cat (1997)'
p3301
S'0120317'
p3302
sS'Lethal Weapon (1987)'
p3303
S'0093409'
p3304
sS'Lawn Dogs (1997)'
p3305
S'0119506'
p3306
sS'Rain (1932)'
p3307
S'0023369'
p3308
sS'In Love and War (1996)'
p3309
S'0116621'
p3310
sS'Room with a View, A (1986)'
p3311
S'1150335'
p3312
sS'Hugo Pool (1997)'
p3313
S'0119327'
p3314
sS'Inkwell, The (1994)'
p3315
S'0110137'
p3316
sS'Escape from the Planet of the Apes (1971)'
p3317
S'0067065'
p3318
sS'Run of the Country, The (1995)'
p3319
S'6148958'
p3320
sS'Big Lebowski, The (1998)'
p3321
S'0118715'
p3322
sS'Tarzan and the Lost City (1998)'
p3323
S'0120856'
p3324
sS"White Men Can't Jump (1992)"
p3325
S'0105812'
p3326
sS'Get Shorty (1995)'
p3327
S'0113161'
p3328
sS'I Stand Alone (Seul contre tous) (1998)'
p3329
S'0157016'
p3330
sS'Sleepy Hollow (1999)'
p3331
S'0162661'
p3332
sS'Stargate (1994)'
p3333
S'0111282'
p3334
sS'Volcano (1997)'
p3335
S'0120461'
p3336
sS'Tender Mercies (1983)'
p3337
S'0086423'
p3338
sS'Good Will Hunting (1997)'
p3339
S'0119217'
p3340
sS'Rocky Horror Picture Show, The (1975)'
p3341
S'0073629'
p3342
sS'Star Kid (1997)'
p3343
S'0120478'
p3344
sS'I Went Down (1997)'
p3345
S'0126344'
p3346
sS'Farinelli: il castrato (1994)'
p3347
S'0109771'
p3348
sS'Bonnie and Clyde (1967)'
p3349
S'0061418'
p3350
sS'Cross of Iron (1977)'
p3351
S'0074695'
p3352
sS'Thieves (Voleurs, Les) (1996)'
p3353
S'0115491'
p3354
sS'Maltese Falcon, The (1941)'
p3355
S'0033870'
p3356
sS'Texas Chainsaw Massacre 2, The (1986)'
p3357
S'0092076'
p3358
sS'My Life in Pink (Ma vie en rose) (1997)'
p3359
S'0119590'
p3360
sS'Newton Boys, The (1998)'
p3361
S'0120769'
p3362
sS'Kull the Conqueror (1997)'
p3363
S'0119484'
p3364
sS'Fisher King, The (1991)'
p3365
S'0101889'
p3366
sS'Meet John Doe (1941)'
p3367
S'0033891'
p3368
sS'American Strays (1996)'
p3369
S'0115531'
p3370
sS'Of Love and Shadows (1994)'
p3371
S'0110712'
p3372
sS'Matewan (1987)'
p3373
S'0093509'
p3374
sS'Bad Taste (1987)'
p3375
S'0092610'
p3376
sS'Zeus and Roxanne (1997)'
p3377
S'0120550'
p3378
sS'Two Girls and a Guy (1997)'
p3379
S'0124179'
p3380
sS'Bulletproof (1996)'
p3381
S'0115783'
p3382
sS'Basic Instinct (1992)'
p3383
S'0103772'
p3384
sS'McCabe & Mrs. Miller (1971)'
p3385
S'0067411'
p3386
sS'Chain Reaction (1996)'
p3387
S'0115857'
p3388
sS'Kalifornia (1993)'
p3389
S'0107302'
p3390
sS'Dead Alive (Braindead) (1992)'
p3391
S'0103873'
p3392
sS'Drowning Mona (2000)'
p3393
S'0186045'
p3394
sS'1-900 (06) (1994)'
p3395
S'0109001'
p3396
sS'Replacement Killers, The (1998)'
p3397
S'0120008'
p3398
sS'Governess, The (1998)'
p3399
S'0120687'
p3400
sS'Nightmare on Elm Street 4: The Dream Master, A (1988)'
p3401
S'0095742'
p3402
sS'Love in the Afternoon (1957)'
p3403
S'0050658'
p3404
sS'From Russia with Love (1963)'
p3405
S'0057076'
p3406
sS'Right Stuff, The (1983)'
p3407
S'1453707'
p3408
sS'George of the Jungle (1997)'
p3409
S'0119190'
p3410
sS'Diamonds (1999)'
p3411
S'0167423'
p3412
sS'Terminal Velocity (1994)'
p3413
S'0111400'
p3414
sS'Great White Hype, The (1996)'
p3415
S'6154544'
p3416
sS'Major League: Back to the Minors (1998)'
p3417
S'0120742'
p3418
sS'Drop Dead Fred (1991)'
p3419
S'0101775'
p3420
sS'Mephisto (1981)'
p3421
S'0082736'
p3422
sS'Defending Your Life (1991)'
p3423
S'0101698'
p3424
sS'Sirens (1994)'
p3425
S'0111171'
p3426
sS'Casino (1995)'
p3427
S'0112641'
p3428
sS'Basketball Diaries, The (1995)'
p3429
S'0112461'
p3430
sS'Dead Again (1991)'
p3431
S'0101669'
p3432
sS'It Could Happen to You (1994)'
p3433
S'0110167'
p3434
sS'Time Bandits (1981)'
p3435
S'0081633'
p3436
sS'Harriet the Spy (1996)'
p3437
S'0116493'
p3438
sS'Wrong Man, The (1956)'
p3439
S'0051207'
p3440
sS'Towering Inferno, The (1974)'
p3441
S'0072308'
p3442
sS'Grumpier Old Men (1995)'
p3443
S'0113228'
p3444
sS"Amityville 1992: It's About Time (1992)"
p3445
S'0103678'
p3446
sS'Colonel Chabert, Le (1994)'
p3447
S'0109454'
p3448
sS'I Married A Strange Person! (1997)'
p3449
S'0119346'
p3450
sS'Dirty Work (1998)'
p3451
S'0120654'
p3452
sS"Child's Play 2 (1990)"
p3453
S'0099253'
p3454
sS'House of Frankenstein (1944)'
p3455
S'0036931'
p3456
sS'Ideal Husband, An (1999)'
p3457
S'0122541'
p3458
sS'Turbulence (1997)'
p3459
S'0120390'
p3460
sS'I Got the Hook Up (1998)'
p3461
S'0131436'
p3462
sS'Mildred Pierce (1945)'
p3463
S'0037913'
p3464
sS'Avalanche (1978)'
p3465
S'0077189'
p3466
sS'Deterrence (1999)'
p3467
S'0158583'
p3468
sS'True Crime (1996)'
p3469
S'0698183'
p3470
sS'Wild Reeds (Les roseaux sauvages) (1994)'
p3471
S'0111019'
p3472
sS'Ghost (1990)'
p3473
S'0099653'
p3474
sS"William Shakespeare's Romeo + Juliet (1996)"
p3475
S'0117509'
p3476
sS"Wes Craven's New Nightmare (Nightmare on Elm Street Part 7: Freddy's Finale, A) (1994)"
p3477
S'0111686'
p3478
sS'Without Limits (1998)'
p3479
S'0119934'
p3480
sS'Stuart Saves His Family (1995)'
p3481
S'0114571'
p3482
sS'Fox and the Hound, The (1981)'
p3483
S'0082406'
p3484
sS'Life Is Beautiful (La Vita \xc3\xa8 bella) (1997)'
p3485
S'0118799'
p3486
sS'Sling Blade (1996)'
p3487
S'0117666'
p3488
sS'Penny Serenade (1941)'
p3489
S'0034012'
p3490
sS'Cronos (1993)'
p3491
S'0104029'
p3492
sS'Bulworth (1998)'
p3493
S'0118798'
p3494
sS'Mother (1996)'
p3495
S'0117091'
p3496
sS'Flower of My Secret, The (La flor de mi secreto) (1995)'
p3497
S'0113083'
p3498
sS'Of Mice and Men (1992)'
p3499
S'0105046'
p3500
sS'Bhaji on the Beach (1993)'
p3501
S'0106408'
p3502
sS'Love Affair (1994)'
p3503
S'0110391'
p3504
sS'Baby... Secret of the Lost Legend (1985)'
p3505
S'0088760'
p3506
sS'True Lies (1994)'
p3507
S'0111503'
p3508
sS'He Walked by Night (1948)'
p3509
S'0040427'
p3510
sS'Happy, Texas (1999)'
p3511
S'0162360'
p3512
sS'Sliver (1993)'
p3513
S'0108162'
p3514
sS'Hocus Pocus (1993)'
p3515
S'0107120'
p3516
sS'Barefoot in the Park (1967)'
p3517
S'0061385'
p3518
sS'Twilight (1998)'
p3519
S'0119594'
p3520
sS'Bad Lieutenant (1992)'
p3521
S'0103759'
p3522
sS'Country (1984)'
p3523
S'0087091'
p3524
sS'Son of Flubber (1963)'
p3525
S'0057518'
p3526
sS'Otello (1986)'
p3527
S'0091699'
p3528
sS'French Kiss (1995)'
p3529
S'0113117'
p3530
sS'Message to Love: The Isle of Wight Festival (1996)'
p3531
S'0117028'
p3532
sS'Reckless (1995)'
p3533
S'0114241'
p3534
sS'Waterworld (1995)'
p3535
S'0114898'
p3536
sS'Poison Ivy II (1996)'
p3537
S'0114151'
p3538
sS'Restoration (1995)'
p3539
S'0114272'
p3540
sS'Shall We Dance (1937)'
p3541
S'0029546'
p3542
sS'Killing, The (1956)'
p3543
S'0049406'
p3544
sS'American Beauty (1999)'
p3545
S'0169547'
p3546
sS'Sum of Us, The (1994)'
p3547
S'0111309'
p3548
sS'24 7: Twenty Four Seven (1997)'
p3549
S'0120391'
p3550
sS'Monty Python and the Holy Grail (1975)'
p3551
S'0071853'
p3552
sS'Sesame Street Presents Follow That Bird (1985)'
p3553
S'0089994'
p3554
sS'Kim (1950)'
p3555
S'0042644'
p3556
sS'Forget Paris (1995)'
p3557
S'0113097'
p3558
sS'Show, The (1995)'
p3559
S'0114436'
p3560
sS'Labyrinth (1986)'
p3561
S'0091369'
p3562
sS"Loaded Weapon 1 (National Lampoon's Loaded Weapon 1) (1993)"
p3563
S'6112982'
p3564
sS"Schindler's List (1993)"
p3565
S'0108052'
p3566
sS'Love & Human Remains (1993)'
p3567
S'0107447'
p3568
sS'Terminator, The (1984)'
p3569
S'0851851'
p3570
sS'Pal Joey (1957)'
p3571
S'0050815'
p3572
sS'Pope of Greenwich Village, The (1984)'
p3573
S'0087932'
p3574
sS'Hairspray (1988)'
p3575
S'0095270'
p3576
sS'Weird Science (1985)'
p3577
S'0090305'
p3578
sS'Beverly Hills Cop III (1994)'
p3579
S'0109254'
p3580
sS'Orgazmo (1997)'
p3581
S'0124819'
p3582
sS'Ransom (1996)'
p3583
S'0117438'
p3584
sS'Universal Soldier (1992)'
p3585
S'0105698'
p3586
sS'Topsy-Turvy (1999)'
p3587
S'0151568'
p3588
sS'Henry: Portrait of a Serial Killer (1986)'
p3589
S'0099763'
p3590
sS'Lost & Found (1999)'
p3591
S'0120836'
p3592
sS'Playing by Heart (1998)'
p3593
S'0145734'
p3594
sS'Wedding Singer, The (1998)'
p3595
S'0120888'
p3596
sS'Brothers McMullen, The (1995)'
p3597
S'6155832'
p3598
sS'Light of Day (1987)'
p3599
S'0093415'
p3600
sS'Last Summer in the Hamptons (1995)'
p3601
S'0113612'
p3602
sS'Santa Claus: The Movie (1985)'
p3603
S'0089961'
p3604
sS'Nick of Time (1995)'
p3605
S'0113972'
p3606
sS'Purple Rose of Cairo, The (1985)'
p3607
S'0089853'
p3608
sS'Last Time I Saw Paris, The (1954)'
p3609
S'0047162'
p3610
sS'Lifeforce (1985)'
p3611
S'0089489'
p3612
sS'Hell Night (1981)'
p3613
S'0082511'
p3614
sS'U2: Rattle and Hum (1988)'
p3615
S'0096328'
p3616
sS'Journey of August King, The (1995)'
p3617
S'0113490'
p3618
sS'Santa Fe Trail (1940)'
p3619
S'0033021'
p3620
sS'Game, The (1997)'
p3621
S'0119174'
p3622
sS'Gambler, The (J\xc3\xa1t\xc3\xa9kos, A) (1997)'
p3623
S'0129111'
p3624
sS'Heaven Can Wait (1978)'
p3625
S'0077663'
p3626
sS'Mille bolle blu (1993)'
p3627
S'0107575'
p3628
sS'Casper (1995)'
p3629
S'0112642'
p3630
sS'Halloween 5: The Revenge of Michael Myers (1989)'
p3631
S'5087380'
p3632
sS'Music From Another Room (1998)'
p3633
S'0119734'
p3634
sS'Madonna: Truth or Dare (1991)'
p3635
S'0102370'
p3636
sS'Outrageous Fortune (1987)'
p3637
S'0093690'
p3638
sS"Carlito's Way (1993)"
p3639
S'0106519'
p3640
sS'Spitfire Grill, The (1996)'
p3641
S'0117718'
p3642
sS'Lamerica (1994)'
p3643
S'0110299'
p3644
sS'Notting Hill (1999)'
p3645
S'0125439'
p3646
sS'Willy Wonka & the Chocolate Factory (1971)'
p3647
S'0067992'
p3648
sS'Barb Wire (1996)'
p3649
S'0115624'
p3650
sS'Operation Dumbo Drop (1995)'
p3651
S'0114048'
p3652
sS'Little Shop of Horrors (1986)'
p3653
S'0091419'
p3654
sS'Screamers (1995)'
p3655
S'0114367'
p3656
sS'Brassed Off (1996)'
p3657
S'0115744'
p3658
sS'Help! (1965)'
p3659
S'0059260'
p3660
sS'Night of the Comet (1984)'
p3661
S'0087799'
p3662
sS'Mortal Kombat: Annihilation (1997)'
p3663
S'0119707'
p3664
sS'Dead Calm (1989)'
p3665
S'0097162'
p3666
sS'Summer of Sam (1999)'
p3667
S'0162677'
p3668
sS'Violets Are Blue... (1986)'
p3669
S'0092173'
p3670
sS'Marty (1955)'
p3671
S'0048356'
p3672
sS'What Planet Are You From? (2000)'
p3673
S'0181151'
p3674
sS'Demolition Man (1993)'
p3675
S'0106697'
p3676
sS'Dead Ringers (1988)'
p3677
S'0094964'
p3678
sS'Age of Innocence, The (1993)'
p3679
S'0402289'
p3680
sS"'night Mother (1986)"
p3681
S'0090556'
p3682
sS'Wishmaster (1997)'
p3683
S'0120524'
p3684
sS'Lost World: Jurassic Park, The (1997)'
p3685
S'0119567'
p3686
sS'Messenger: The Story of Joan of Arc, The (1999)'
p3687
S'0151137'
p3688
sS'Jury Duty (1995)'
p3689
S'0113500'
p3690
sS'Kids (1995)'
p3691
S'0113540'
p3692
sS'Great Escape, The (1963)'
p3693
S'1460634'
p3694
sS"Felicia's Journey (1999)"
p3695
S'0165773'
p3696
sS'Acid House, The (1998)'
p3697
S'0122515'
p3698
sS'Man in the Iron Mask, The (1998)'
p3699
S'0120744'
p3700
sS'400 Blows, The (Les quatre cents coups) (1959)'
p3701
S'0053198'
p3702
sS'Pinocchio (1940)'
p3703
S'0032910'
p3704
sS'Man Who Knew Too Much, The (1956)'
p3705
S'0049470'
p3706
sS'Withnail & I (1987)'
p3707
S'0094336'
p3708
sS'Hate (Haine, La) (1995)'
p3709
S'0113247'
p3710
sS'Fight Club (1999)'
p3711
S'0137523'
p3712
sS'Total Recall (1990)'
p3713
S'0100802'
p3714
sS'Looking for Richard (1996)'
p3715
S'0116913'
p3716
sS'North by Northwest (1959)'
p3717
S'0053125'
p3718
sS'Clockwatchers (1997)'
p3719
S'0118866'
p3720
sS'Shadow Conspiracy (1997)'
p3721
S'0120107'
p3722
sS'Little Women (1994)'
p3723
S'0110367'
p3724
sS'American Werewolf in London, An (1981)'
p3725
S'0082010'
p3726
sS'Rushmore (1998)'
p3727
S'0128445'
p3728
sS'Frankie Starlight (1995)'
p3729
S'0113107'
p3730
sS'Piranha (1978)'
p3731
S'0078087'
p3732
sS'Death in Brunswick (1991)'
p3733
S'0101692'
p3734
sS'Kicking and Screaming (1995)'
p3735
S'0113537'
p3736
sS'Jerry Maguire (1996)'
p3737
S'0116695'
p3738
sS'Shine (1996)'
p3739
S'0117631'
p3740
sS'Crazy in Alabama (1999)'
p3741
S'0142201'
p3742
sS'Strange Days (1995)'
p3743
S'0114558'
p3744
sS'Following (1998)'
p3745
S'0154506'
p3746
sS'Kazaam (1996)'
p3747
S'0116756'
p3748
sS'Groundhog Day (1993)'
p3749
S'0107048'
p3750
sS'Any Given Sunday (1999)'
p3751
S'0146838'
p3752
sS'Exorcist II: The Heretic (1977)'
p3753
S'0076009'
p3754
sS'Saboteur (1942)'
p3755
S'0035279'
p3756
sS'When Night Is Falling (1995)'
p3757
S'0114916'
p3758
sS'Mr. Wonderful (1993)'
p3759
S'0107613'
p3760
sS'Voyage of the Damned (1976)'
p3761
S'0075406'
p3762
sS'Simple Wish, A (1997)'
p3763
S'0120133'
p3764
sS'Cimarron (1931)'
p3765
S'0021746'
p3766
sS'Toys (1992)'
p3767
S'0105629'
p3768
sS'Dead Zone, The (1983)'
p3769
S'0085407'
p3770
sS'I Love Trouble (1994)'
p3771
S'0110093'
p3772
sS'Effect of Gamma Rays on Man-in-the-Moon Marigolds, The (1972)'
p3773
S'0068528'
p3774
sS'Judy Berlin (1999)'
p3775
S'0181618'
p3776
sS'One Magic Christmas (1985)'
p3777
S'0089731'
p3778
sS'Friday the 13th (1980)'
p3779
S'0080761'
p3780
sS'Shampoo (1975)'
p3781
S'0073692'
p3782
sS'Conquest of the Planet of the Apes (1972)'
p3783
S'0068408'
p3784
sS'Man Who Knew Too Much, The (1934)'
p3785
S'0049470'
p3786
sS'Hamlet (1996)'
p3787
S'0116477'
p3788
sS'Little Men (1998)'
p3789
S'0145048'
p3790
sS'Six Degrees of Separation (1993)'
p3791
S'0108149'
p3792
sS'Shakespeare in Love (1998)'
p3793
S'0138097'
p3794
sS"Rich Man's Wife, The (1996)"
p3795
S'0117473'
p3796
sS'Jamaica Inn (1939)'
p3797
S'0031505'
p3798
sS'Malcolm X (1992)'
p3799
S'0104797'
p3800
sS'Last Action Hero (1993)'
p3801
S'0107362'
p3802
sS'For All Mankind (1989)'
p3803
S'0097372'
p3804
sS'Mother Night (1996)'
p3805
S'0117093'
p3806
sS'Getting Even with Dad (1994)'
p3807
S'0109891'
p3808
sS'For Whom the Bell Tolls (1943)'
p3809
S'0035896'
p3810
sS'Georgia (1995)'
p3811
S'0113158'
p3812
sS'Convent, The (O Convento) (1995)'
p3813
S'0112716'
p3814
sS'Charade (1963)'
p3815
S'0056923'
p3816
sS'Omega Man, The (1971)'
p3817
S'0067525'
p3818
sS'Topaz (1969)'
p3819
S'0065112'
p3820
sS'Six-String Samurai (1998)'
p3821
S'0118736'
p3822
sS'Nosferatu (Nosferatu, eine Symphonie des Grauens) (1922)'
p3823
S'0013442'
p3824
sS'Tetsuo II: Body Hammer (1992)'
p3825
S'0105569'
p3826
sS'Soylent Green (1973)'
p3827
S'0070723'
p3828
sS'Rawhead Rex (1986)'
p3829
S'0091829'
p3830
sS'Young Guns II (1990)'
p3831
S'0100994'
p3832
sS'Gone with the Wind (1939)'
p3833
S'0031381'
p3834
sS'Robin Hood: Prince of Thieves (1991)'
p3835
S'0102798'
p3836
sS'One Crazy Summer (1986)'
p3837
S'0091680'
p3838
sS'Funeral, The (1996)'
p3839
S'0116378'
p3840
sS'Drop Dead Gorgeous (1999)'
p3841
S'0157503'
p3842
sS'Craft, The (1996)'
p3843
S'0115963'
p3844
sS'Heartbreak Ridge (1986)'
p3845
S'0091187'
p3846
sS'Foreign Correspondent (1940)'
p3847
S'0032484'
p3848
sS'Mirror Has Two Faces, The (1996)'
p3849
S'0117057'
p3850
sS'Dunston Checks In (1996)'
p3851
S'0116151'
p3852
sS'Honey, I Blew Up the Kid (1992)'
p3853
S'0104437'
p3854
sS'Sea Wolves, The (1980)'
p3855
S'0081470'
p3856
sS'Man with Two Brains, The (1983)'
p3857
S'0085894'
p3858
sS"Where's Marlowe? (1998)"
p3859
S'0118150'
p3860
sS'Four Days in September (O Que \xc3\x89 Isso, Companheiro?) (1997)'
p3861
S'0119815'
p3862
sS"Hang 'Em High (1968)"
p3863
S'0061747'
p3864
sS'Inspector General, The (1949)'
p3865
S'0041509'
p3866
sS'Godzilla (Gojira) (1954)'
p3867
S'0047034'
p3868
sS'Short Cuts (1993)'
p3869
S'0108122'
p3870
sS'Heartburn (1986)'
p3871
S'0091188'
p3872
sS'Rosewood (1997)'
p3873
S'0120036'
p3874
sS'Ponette (1996)'
p3875
S'0117359'
p3876
sS'Canadian Bacon (1995)'
p3877
S'0109370'
p3878
sS'Losing Isaiah (1995)'
p3879
S'0113691'
p3880
sS'Assignment, The (1997)'
p3881
S'1419879'
p3882
sS'Lethal Weapon 4 (1998)'
p3883
S'0122151'
p3884
sS'Godfather: Part II, The (1974)'
p3885
S'0071562'
p3886
sS'Who Framed Roger Rabbit? (1988)'
p3887
S'0096438'
p3888
sS'Batman Returns (1992)'
p3889
S'0103776'
p3890
sS'Adventures of Robin Hood, The (1938)'
p3891
S'0029843'
p3892
sS'Whatever (1998)'
p3893
S'0140688'
p3894
sS'Body Snatchers (1993)'
p3895
S'0106452'
p3896
sS'Safe Men (1998)'
p3897
S'0120813'
p3898
sS'Limbo (1999)'
p3899
S'0164085'
p3900
sS'Chinese Box (1997)'
p3901
S'0118851'
p3902
sS'Cradle Will Rock (1999)'
p3903
S'0150216'
p3904
sS'Underneath (1995)'
p3905
S'0114788'
p3906
sS'Raging Bull (1980)'
p3907
S'0081398'
p3908
sS'U.S. Marshals (1998)'
p3909
S'0120873'
p3910
sS'Falling in Love Again (1980)'
p3911
S'0080714'
p3912
sS"Gone Fishin' (1997)"
p3913
S'0119214'
p3914
sS'Mighty Aphrodite (1995)'
p3915
S'0113819'
p3916
sS'Jude (1996)'
p3917
S'0116722'
p3918
sS'1984 (Nineteen Eighty-Four) (1984)'
p3919
S'1439315'
p3920
sS'Mr. Smith Goes to Washington (1939)'
p3921
S'0031679'
p3922
sS'Out to Sea (1997)'
p3923
S'0119848'
p3924
sS'Tea with Mussolini (1999)'
p3925
S'0120857'
p3926
sS'His Girl Friday (1940)'
p3927
S'0032599'
p3928
sS'Speed (1994)'
p3929
S'0111257'
p3930
sS'Old Yeller (1957)'
p3931
S'0050798'
p3932
sS'All About Eve (1950)'
p3933
S'0042192'
p3934
sS"Player's Club, The (1998)"
p3935
S'6173702'
p3936
sS'Broken English (1996)'
p3937
S'0115760'
p3938
sS'Henry: Portrait of a Serial Killer, Part 2 (1998)'
p3939
S'0099763'
p3940
sS'Suspicion (1941)'
p3941
S'0034248'
p3942
sS'Unhook the Stars (1996)'
p3943
S'0118044'
p3944
sS'Poltergeist (1982)'
p3945
S'0084516'
p3946
sS'Seven Chances (1925)'
p3947
S'0016332'
p3948
sS'Searching for Bobby Fischer (1993)'
p3949
S'0108065'
p3950
sS'Telling Lies in America (1997)'
p3951
S'0120303'
p3952
sS'Affliction (1997)'
p3953
S'0118564'
p3954
sS'Laura (1944)'
p3955
S'0037008'
p3956
sS'Small Faces (1996)'
p3957
S'0114474'
p3958
sS'Lucie Aubrac (1997)'
p3959
S'0119586'
p3960
sS'It Conquered the World (1956)'
p3961
S'0049370'
p3962
sS'Taking of Pelham One Two Three, The (1974)'
p3963
S'0072251'
p3964
sS'Pink Floyd: The Wall (1982)'
p3965
S'0084503'
p3966
sS'Manhattan (1979)'
p3967
S'0079522'
p3968
sS'Love Jones (1997)'
p3969
S'0119572'
p3970
sS'Bone Collector, The (1999)'
p3971
S'0145681'
p3972
sS'Fantasia 2000 (1999)'
p3973
S'0120910'
p3974
sS'Falcon and the Snowman, The (1985)'
p3975
S'0087231'
p3976
sS'Hush (1998)'
p3977
S'0118744'
p3978
sS'Delicatessen (1991)'
p3979
S'0101700'
p3980
sS'House Arrest (1996)'
p3981
S'0116571'
p3982
sS'Miami Rhapsody (1995)'
p3983
S'0113808'
p3984
sS'Hamlet (1948)'
p3985
S'0040416'
p3986
sS'Fly, The (1958)'
p3987
S'6289840'
p3988
sS'Doom Generation, The (1995)'
p3989
S'0112887'
p3990
sS'Jingle All the Way (1996)'
p3991
S'0116705'
p3992
sS'Disturbing Behavior (1998)'
p3993
S'0134619'
p3994
sS'Wild Wild West (1999)'
p3995
S'0120891'
p3996
sS'Down to You (2000)'
p3997
S'0186975'
p3998
sS'Toy Story (1995)'
p3999
S'0114709'
p4000
sS'For Love or Money (1993)'
p4001
S'0106941'
p4002
sS'Supercop 2 (Project S) (Chao ji ji hua) (1993)'
p4003
S'0106544'
p4004
sS'Flipper (1996)'
p4005
S'0116322'
p4006
sS'Amityville Curse, The (1990)'
p4007
S'0099030'
p4008
sS'Home Alone (1990)'
p4009
S'0099785'
p4010
sS'Twice Upon a Yesterday (1998)'
p4011
S'0138590'
p4012
sS'Newsies (1992)'
p4013
S'0104990'
p4014
sS'Pit and the Pendulum, The (1961)'
p4015
S'1452784'
p4016
sS'Apt Pupil (1998)'
p4017
S'0118636'
p4018
sS'Neon Bible, The (1995)'
p4019
S'0113952'
p4020
sS'Captives (1994)'
p4021
S'0109374'
p4022
sS'Arguing the World (1998)'
p4023
S'0129758'
p4024
sS'Little Odessa (1994)'
p4025
S'0110365'
p4026
sS'Color of Money, The (1986)'
p4027
S'0090863'
p4028
sS'Arrival, The (1996)'
p4029
S'0115571'
p4030
sS'Life (1999)'
p4031
S'0123964'
p4032
sS'Brady Bunch Movie, The (1995)'
p4033
S'0112572'
p4034
sS'Three Lives and Only One Death (Trois vies & une seule mort) (1996)'
p4035
S'0117968'
p4036
sS'Maximum Risk (1996)'
p4037
S'0117011'
p4038
sS'Clean Slate (1994)'
p4039
S'0109443'
p4040
sS'Outbreak (1995)'
p4041
S'0114069'
p4042
sS'Ed (1996)'
p4043
S'0116165'
p4044
sS'Cure, The (1995)'
p4045
S'0112757'
p4046
sS'Return of the Pink Panther, The (1975)'
p4047
S'0072081'
p4048
sS'Immortal Beloved (1994)'
p4049
S'0110116'
p4050
sS'Plenty (1985)'
p4051
S'0089816'
p4052
sS'Dangerous Liaisons (1988)'
p4053
S'0094947'
p4054
sS'Waiting to Exhale (1995)'
p4055
S'0114885'
p4056
sS'All Dogs Go to Heaven 2 (1996)'
p4057
S'0115509'
p4058
sS'Mask of Zorro, The (1998)'
p4059
S'0120746'
p4060
sS'Swept from the Sea (1997)'
p4061
S'0120257'
p4062
sS'African Queen, The (1951)'
p4063
S'0043265'
p4064
sS'Police Academy 3: Back in Training (1986)'
p4065
S'0091777'
p4066
sS"European Vacation (aka National Lampoon's European Vacation) (1985)"
p4067
S'0089670'
p4068
sS'Until the End of the World (Bis ans Ende der Welt) (1991)'
p4069
S'0101458'
p4070
sS'Shanghai Surprise (1986)'
p4071
S'0091934'
p4072
sS'Varsity Blues (1999)'
p4073
S'0139699'
p4074
sS'Soldier (1998)'
p4075
S'0120157'
p4076
sS'Cement Garden, The (1993)'
p4077
S'0106535'
p4078
sS'Brokedown Palace (1999)'
p4079
S'0120620'
p4080
sS'Air Bud: Golden Receiver (1998)'
p4081
S'0140796'
p4082
sS'Home for the Holidays (1995)'
p4083
S'0113321'
p4084
sS'Grand Day Out with Wallace and Gromit, A (1989)'
p4085
S'0104361'
p4086
sS'Son of Dracula (1943)'
p4087
S'0036376'
p4088
sS'Rocky II (1979)'
p4089
S'0079817'
p4090
sS'Days of Thunder (1990)'
p4091
S'0099371'
p4092
sS'Island of Dr. Moreau, The (1996)'
p4093
S'0116654'
p4094
sS'With Honors (1994)'
p4095
S'0111732'
p4096
sS'Mark of Zorro, The (1940)'
p4097
S'0032762'
p4098
sS'Princess Caraboo (1994)'
p4099
S'0110892'
p4100
sS'Tommy Boy (1995)'
p4101
S'0114694'
p4102
sS"Fathers' Day (1997)"
p4103
S'0119109'
p4104
sS'Antz (1998)'
p4105
S'0120587'
p4106
sS'Midnight in the Garden of Good and Evil (1997)'
p4107
S'0119668'
p4108
sS"Mr. Holland's Opus (1995)"
p4109
S'0113862'
p4110
sS'Bound (1996)'
p4111
S'0115736'
p4112
sS'Brother of Sleep (Schlafes Bruder) (1995)'
p4113
S'0114354'
p4114
sS'Jagged Edge (1985)'
p4115
S'0089360'
p4116
sS'Roman Holiday (1953)'
p4117
S'0046250'
p4118
sS'Pacific Heights (1990)'
p4119
S'0100318'
p4120
sS'From the Journals of Jean Seberg (1995)'
p4121
S'0113125'
p4122
sS'Airport 1975 (1974)'
p4123
S'0071110'
p4124
sS'Mars Attacks! (1996)'
p4125
S'0116996'
p4126
sS'Niagara (1953)'
p4127
S'0046126'
p4128
sS'Mr. & Mrs. Smith (1941)'
p4129
S'0033922'
p4130
sS'White Squall (1996)'
p4131
S'0118158'
p4132
sS'Sid and Nancy (1986)'
p4133
S'0091954'
p4134
sS"Christmas Vacation (National Lampoon's Christmas Vacation) (1989)"
p4135
S'0097958'
p4136
sS'Femme Nikita, La (Nikita) (1990)'
p4137
S'0100263'
p4138
sS'Simon Birch (1998)'
p4139
S'0124879'
p4140
sS'Karate Kid, The (1984)'
p4141
S'0087538'
p4142
sS'Excess Baggage (1997)'
p4143
S'0119086'
p4144
sS'Airport (1970)'
p4145
S'0065377'
p4146
sS'Drugstore Cowboy (1989)'
p4147
S'0097240'
p4148
sS'Prefontaine (1997)'
p4149
S'0119937'
p4150
sS'Thirty-Two Short Films About Glenn Gould (1993)'
p4151
S'0108328'
p4152
sS'Down by Law (1986)'
p4153
S'0090967'
p4154
sS'Cube (1997)'
p4155
S'0123755'
p4156
sS'Feeling Minnesota (1996)'
p4157
S'0116289'
p4158
sS'Englishman Who Went Up a Hill But Came Down a Mountain, The (1995)'
p4159
S'0112966'
p4160
sS'Spartacus (1960)'
p4161
S'0054331'
p4162
sS"Ferris Bueller's Day Off (1986)"
p4163
S'0091042'
p4164
sS'Parent Trap, The (1961)'
p4165
S'5289804'
p4166
sS'To Gillian on Her 37th Birthday (1996)'
p4167
S'0117924'
p4168
sS'Way We Were, The (1973)'
p4169
S'0070903'
p4170
sS'Serial Mom (1994)'
p4171
S'0111127'
p4172
sS'Treasure of the Sierra Madre, The (1948)'
p4173
S'0040897'
p4174
sS'Hav Plenty (1997)'
p4175
S'0126938'
p4176
sS"Men Don't Leave (1990)"
p4177
S'0100134'
p4178
sS'Ridicule (1996)'
p4179
S'0117477'
p4180
sS'Sudden Death (1995)'
p4181
S'0114576'
p4182
sS'Backdraft (1991)'
p4183
S'0101393'
p4184
sS'Rosetta (1999)'
p4185
S'0200071'
p4186
sS'Village of the Damned (1960)'
p4187
S'0054443'
p4188
sS'301, 302 (301/302) (1995)'
p4189
S'0112257'
p4190
sS'Dragonheart (1996)'
p4191
S'0116136'
p4192
sS'Thirteenth Floor, The (1999)'
p4193
S'0139809'
p4194
sS'River Wild, The (1994)'
p4195
S'0110997'
p4196
sS'Hype! (1996)'
p4197
S'0116589'
p4198
sS'Air Up There, The (1994)'
p4199
S'0109067'
p4200
sS"Pyromaniac's Love Story, A (1995)"
p4201
S'0114210'
p4202
sS'Dreamlife of Angels, The (Vie r\xc3\xaav\xc3\xa9e des anges, La) (1998)'
p4203
S'0120449'
p4204
sS'Babe: Pig in the City (1998)'
p4205
S'0120595'
p4206
sS"'Til There Was You (1997)"
p4207
S'0118523'
p4208
sS'Puppet Masters, The (1994)'
p4209
S'5693072'
p4210
sS'From Here to Eternity (1953)'
p4211
S'0045793'
p4212
sS"Mummy's Hand, The (1940)"
p4213
S'1458315'
p4214
sS'Flirting With Disaster (1996)'
p4215
S'0116324'
p4216
sS'Substance of Fire, The (1996)'
p4217
S'0117773'
p4218
sS'Just Cause (1995)'
p4219
S'0113501'
p4220
sS'Batman (1989)'
p4221
S'0096895'
p4222
sS"Squanto: A Warrior's Tale (1994)"
p4223
S'0111271'
p4224
sS'Surviving the Game (1994)'
p4225
S'0111323'
p4226
sS'Heathers (1989)'
p4227
S'2304672'
p4228
sS'Bedrooms & Hallways (1998)'
p4229
S'0126810'
p4230
sS"Soldier's Story, A (1984)"
p4231
S'0088146'
p4232
sS'Melvin and Howard (1980)'
p4233
S'0081150'
p4234
sS'Cool, Dry Place, A (1998)'
p4235
S'0120642'
p4236
sS'Children of the Corn IV: The Gathering (1996)'
p4237
S'0115885'
p4238
sS'Nobody Loves Me (Keiner liebt mich) (1994)'
p4239
S'0110251'
p4240
sS'Winslow Boy, The (1999)'
p4241
S'0155388'
p4242
sS'101 Dalmatians (One Hundred and One Dalmatians) (1961)'
p4243
S'0055254'
p4244
sS'South Park: Bigger, Longer and Uncut (1999)'
p4245
S'0158983'
p4246
sS'Blade Runner (1982)'
p4247
S'0083658'
p4248
sS'Primal Fear (1996)'
p4249
S'0117381'
p4250
sS'Home Alone 3 (1997)'
p4251
S'0119303'
p4252
sS'Body Heat (1981)'
p4253
S'0082089'
p4254
sS'From the Hip (1987)'
p4255
S'0093051'
p4256
sS'Outside Providence (1999)'
p4257
S'0125971'
p4258
sS'Simon Sez (1999)'
p4259
S'0168172'
p4260
sS'MatchMaker, The (1997)'
p4261
S'5191302'
p4262
sS'Mulholland Falls (1996)'
p4263
S'0117107'
p4264
sS"Airport '77 (1977)"
p4265
S'0075648'
p4266
sS'Heavenly Creatures (1994)'
p4267
S'0110005'
p4268
sS'War Zone, The (1999)'
p4269
S'0141974'
p4270
sS'No Looking Back (1998)'
p4271
S'0119560'
p4272
sS'Walk in the Sun, A (1945)'
p4273
S'0038235'
p4274
sS'Tin Drum, The (Blechtrommel, Die) (1979)'
p4275
S'0078875'
p4276
sS'Surviving Picasso (1996)'
p4277
S'0117791'
p4278
sS'Key Largo (1948)'
p4279
S'0040506'
p4280
sS'Bed of Roses (1996)'
p4281
S'0115644'
p4282
sS'Welcome to Sarajevo (1997)'
p4283
S'0120490'
p4284
sS'Scrooged (1988)'
p4285
S'0096061'
p4286
sS'Perfect World, A (1993)'
p4287
S'0107808'
p4288
sS'Citizen Ruth (1996)'
p4289
S'0115906'
p4290
sS'Gilda (1946)'
p4291
S'0038559'
p4292
sS'Stalker (1979)'
p4293
S'0079944'
p4294
sS'Return to Paradise (1998)'
p4295
S'0124595'
p4296
sS'Wings (1927)'
p4297
S'0018578'
p4298
sS'Return of Martin Guerre, The (Retour de Martin Guerre, Le) (1982)'
p4299
S'0084589'
p4300
sS'In the Realm of the Senses (Ai no corrida) (1976)'
p4301
S'0074102'
p4302
sS'One Tough Cop (1998)'
p4303
S'0122642'
p4304
sS'Michael (1996)'
p4305
S'0117038'
p4306
sS'Seven Years in Tibet (1997)'
p4307
S'0120102'
p4308
sS'Fast, Cheap & Out of Control (1997)'
p4309
S'0119107'
p4310
sS'Moonlight and Valentino (1995)'
p4311
S'0113851'
p4312
sS'Exit to Eden (1994)'
p4313
S'0109758'
p4314
sS'Sleepless in Seattle (1993)'
p4315
S'0108160'
p4316
sS'Shallow Grave (1994)'
p4317
S'0111149'
p4318
sS'Robin Hood: Men in Tights (1993)'
p4319
S'0107977'
p4320
sS'Analyze This (1999)'
p4321
S'0122933'
p4322
sS'True Romance (1993)'
p4323
S'0108399'
p4324
sS'Rainmaker, The (1997)'
p4325
S'0541748'
p4326
sS'Rollercoaster (1977)'
p4327
S'0076636'
p4328
sS'Bitter Moon (1992)'
p4329
S'0104779'
p4330
sS'Police Academy 2: Their First Assignment (1985)'
p4331
S'0089822'
p4332
sS'Mystery Science Theater 3000: The Movie (1996)'
p4333
S'0117128'
p4334
sS'2010: The Year We Make Contact (1984)'
p4335
S'0086837'
p4336
sS'Price Above Rubies, A (1998)'
p4337
S'0120793'
p4338
sS'Get Bruce (1999)'
p4339
S'0184510'
p4340
sS'Spirits of the Dead (Histoires extraordinaires) (1968)'
p4341
S'0063715'
p4342
sS'Poison Ivy: New Seduction (1997)'
p4343
S'0119908'
p4344
sS'Finding North (1998)'
p4345
S'0124555'
p4346
sS'Swamp Thing (1982)'
p4347
S'0084745'
p4348
sS'She-Devil (1989)'
p4349
S'0098309'
p4350
sS'Stonewall (1995)'
p4351
S'0114550'
p4352
sS'Psycho III (1986)'
p4353
S'0091799'
p4354
sS'Mating Habits of the Earthbound Human, The (1999)'
p4355
S'0165874'
p4356
sS'Iron Giant, The (1999)'
p4357
S'0129167'
p4358
sS'It Came from Hollywood (1982)'
p4359
S'0084156'
p4360
sS'Rear Window (1954)'
p4361
S'0047396'
p4362
sS'Arachnophobia (1990)'
p4363
S'0099052'
p4364
sS'Twin Town (1997)'
p4365
S'0120394'
p4366
sS'Face/Off (1997)'
p4367
S'0119094'
p4368
sS'Prom Night IV: Deliver Us From Evil (1992)'
p4369
S'0105179'
p4370
sS'I Confess (1953)'
p4371
S'0045897'
p4372
sS'West Beirut (West Beyrouth) (1998)'
p4373
S'0157183'
p4374
sS"'burbs, The (1989)"
p4375
S'0096734'
p4376
sS'Nightmare on Elm Street 3: Dream Warriors, A (1987)'
p4377
S'0093629'
p4378
sS'Interview with the Vampire: The Vampire Chronicles (1994)'
p4379
S'0110148'
p4380
sS'Incredible Journey, The (1963)'
p4381
S'0057180'
p4382
sS'My Fair Lady (1964)'
p4383
S'0058385'
p4384
sS'Single White Female (1992)'
p4385
S'0105414'
p4386
sS'Light It Up (1999)'
p4387
S'0172726'
p4388
sS'Marcello Mastroianni: I Remember Yes, I Remember (Marcello Mastroianni: mi ricordo, s\xc3\xac, io mi ricordo) (1997)'
p4389
S'0119614'
p4390
sS'Dreaming of Joseph Lees (1999)'
p4391
S'0144178'
p4392
sS'Kidnapped (1960)'
p4393
S'0053994'
p4394
sS'Jane Eyre (1996)'
p4395
S'0116684'
p4396
sS'Allnighter, The (1987)'
p4397
S'0092537'
p4398
sS'I Shot Andy Warhol (1996)'
p4399
S'0116594'
p4400
sS'Swing Kids (1993)'
p4401
S'0108265'
p4402
sS'Amazing Panda Adventure, The (1995)'
p4403
S'0112342'
p4404
sS'Germinal (1993)'
p4405
S'0107002'
p4406
sS'Double Team (1997)'
p4407
S'0119013'
p4408
sS'First Blood (Rambo: First Blood) (1982)'
p4409
S'0083944'
p4410
sS'Dead Tired (Grosse Fatigue) (1994)'
p4411
S'0109942'
p4412
sS'Red Dwarf, The (Nain rouge, Le) (1998)'
p4413
S'0156820'
p4414
sS'Howling II: Your Sister Is a Werewolf (1985)'
p4415
S'0089308'
p4416
sS'Children of Heaven, The (Bacheha-Ye Aseman) (1997)'
p4417
S'0118849'
p4418
sS'Edward Scissorhands (1990)'
p4419
S'0099487'
p4420
sS'Playing God (1997)'
p4421
S'0119906'
p4422
sS'Abyss, The (1989)'
p4423
S'0096754'
p4424
sS'Three Kings (1999)'
p4425
S'0120188'
p4426
sS'Eighth Day, The (Huiti\xc3\xa8me jour, Le) (1996)'
p4427
S'0116581'
p4428
sS'Candleshoe (1977)'
p4429
S'0075807'
p4430
sS'Paradise Lost: The Child Murders at Robin Hood Hills (1996)'
p4431
S'0117293'
p4432
sS'Clear and Present Danger (1994)'
p4433
S'0109444'
p4434
sS'Net, The (1995)'
p4435
S'0113957'
p4436
sS'Ghost and the Darkness, The (1996)'
p4437
S'0116409'
p4438
sS'New Jersey Drive (1995)'
p4439
S'0113967'
p4440
sS'Being Human (1993)'
p4441
S'2125042'
p4442
sS'Pretty in Pink (1986)'
p4443
S'0091790'
p4444
sS'Vampires (1998)'
p4445
S'0120877'
p4446
sS'Little Boy Blue (1997)'
p4447
S'0119547'
p4448
sS"Joe's Apartment (1996)"
p4449
S'0116707'
p4450
sS'Picture Perfect (1997)'
p4451
S'0119896'
p4452
sS'Nightmare Before Christmas, The (1993)'
p4453
S'0107688'
p4454
sS'Secret Agent, The (1996)'
p4455
S'0865124'
p4456
sS'Deep Blue Sea (1999)'
p4457
S'0149261'
p4458
sS'Full Metal Jacket (1987)'
p4459
S'0093058'
p4460
sS'Gold Diggers: The Secret of Bear Mountain (1995)'
p4461
S'0113188'
p4462
sS'Lassie (1994)'
p4463
S'0110305'
p4464
sS'Angel and the Badman (1947)'
p4465
S'0039152'
p4466
sS'Billy Madison (1995)'
p4467
S'0112508'
p4468
sS'Junk Mail (Budbringeren) (1997)'
p4469
S'0118785'
p4470
sS'Deep End of the Ocean, The (1999)'
p4471
S'0120646'
p4472
sS'Public Access (1993)'
p4473
S'0107895'
p4474
sS'Love Serenade (1996)'
p4475
S'0116930'
p4476
sS'Money Pit, The (1986)'
p4477
S'0091541'
p4478
sS'People vs. Larry Flynt, The (1996)'
p4479
S'0117318'
p4480
sS'Jimmy Hollywood (1994)'
p4481
S'0110197'
p4482
sS'Ever After: A Cinderella Story (1998)'
p4483
S'0120631'
p4484
sS'Land and Freedom (Tierra y libertad) (1995)'
p4485
S'0114671'
p4486
sS'Machine, The (1994)'
p4487
S'0109575'
p4488
sS'Rent-a-Kid (1995)'
p4489
S'0114268'
p4490
sS'Source, The (1999)'
p4491
S'0885467'
p4492
sS'Traveller (1997)'
p4493
S'0120366'
p4494
sS'In the Name of the Father (1993)'
p4495
S'0107207'
p4496
sS'Snow White and the Seven Dwarfs (1937)'
p4497
S'0029583'
p4498
sS'Onegin (1999)'
p4499
S'0119079'
p4500
sS'Story of Us, The (1999)'
p4501
S'4515452'
p4502
sS'Men with Guns (1997)'
p4503
S'0119657'
p4504
sS'Young Doctors in Love (1982)'
p4505
S'0084938'
p4506
sS'Run Silent Run Deep (1958)'
p4507
S'0052151'
p4508
sS"Child's Play 3 (1991)"
p4509
S'0103956'
p4510
sS'House on Haunted Hill (1999)'
p4511
S'0185371'
p4512
sS'L.A. Story (1991)'
p4513
S'0102250'
p4514
sS'Meet Joe Black (1998)'
p4515
S'0119643'
p4516
sS'Stefano Quantestorie (1993)'
p4517
S'0108220'
p4518
sS'Up Close and Personal (1996)'
p4519
S'0497080'
p4520
sS'Raisin in the Sun, A (1961)'
p4521
S'0055353'
p4522
sS"Antonia's Line (Antonia) (1995)"
p4523
S'0112379'
p4524
sS"Wayne's World (1992)"
p4525
S'0105793'
p4526
sS'Molly (1999)'
p4527
S'0143746'
p4528
sS'House Party 3 (1994)'
p4529
S'0110064'
p4530
sS'World Is Not Enough, The (1999)'
p4531
S'0143145'
p4532
sS'Rapture, The (1991)'
p4533
S'0102757'
p4534
sS'Reluctant Debutante, The (1958)'
p4535
S'0052126'
p4536
sS'Raining Stones (1993)'
p4537
S'0107920'
p4538
sS'Pump Up the Volume (1990)'
p4539
S'0100436'
p4540
sS'Midnight Run (1988)'
p4541
S'0095631'
p4542
sS'Tie That Binds, The (1995)'
p4543
S'0114666'
p4544
sS'Escape to Witch Mountain (1975)'
p4545
S'0072951'
p4546
sS'Mr. Jones (1993)'
p4547
S'0107611'
p4548
sS'Godfather: Part III, The (1990)'
p4549
S'0099674'
p4550
sS'Mortal Thoughts (1991)'
p4551
S'0102469'
p4552
sS'Woman in the Dunes (Suna no onna) (1964)'
p4553
S'0058625'
p4554
sS'Brandon Teena Story, The (1998)'
p4555
S'0144801'
p4556
sS'Glass Shield, The (1994)'
p4557
S'0109906'
p4558
sS'Drunks (1995)'
p4559
S'0112907'
p4560
sS'Meatballs Part II (1984)'
p4561
S'0087700'
p4562
sS"Who's Afraid of Virginia Woolf? (1966)"
p4563
S'0061184'
p4564
sS'Ogre, The (Unhold, Der) (1996)'
p4565
S'0118043'
p4566
sS'Butterfly Kiss (1995)'
p4567
S'0112604'
p4568
sS'Copycat (1995)'
p4569
S'0112722'
p4570
sS'Education of Little Tree, The (1997)'
p4571
S'0119052'
p4572
sS'Velvet Goldmine (1998)'
p4573
S'0120879'
p4574
sS'Thumbelina (1994)'
p4575
S'0111419'
p4576
sS'Leading Man, The (1996)'
p4577
S'4505598'
p4578
sS"Butcher's Wife, The (1991)"
p4579
S'6099122'
p4580
sS'Elizabeth (1998)'
p4581
S'0127536'
p4582
sS'Castle Freak (1995)'
p4583
S'0112643'
p4584
sS'Gods and Monsters (1998)'
p4585
S'0120684'
p4586
sS'Above the Rim (1994)'
p4587
S'0109035'
p4588
sS'Van, The (1996)'
p4589
S'1655606'
p4590
sS'Black Beauty (1994)'
p4591
S'0109279'
p4592
sS'Menace II Society (1993)'
p4593
S'0107554'
p4594
sS'Carmen (1984)'
p4595
S'0087034'
p4596
sS'Pale Rider (1985)'
p4597
S'0089767'
p4598
sS'Nothing in Common (1986)'
p4599
S'0091653'
p4600
sS'Meatballs 4 (1992)'
p4601
S'0104837'
p4602
sS'Little Princess, The (1939)'
p4603
S'3066194'
p4604
sS'Rocky IV (1985)'
p4605
S'0089927'
p4606
sS'How to Be a Player (1997)'
p4607
S'0119326'
p4608
sS'Black Dog (1998)'
p4609
S'0120610'
p4610
sS'Celluloid Closet, The (1995)'
p4611
S'5553584'
p4612
sS'Under Capricorn (1949)'
p4613
S'0042004'
p4614
sS'Seven Samurai (Shichinin no samurai) (1954)'
p4615
S'0047478'
p4616
sS'Fiendish Plot of Dr. Fu Manchu, The (1980)'
p4617
S'0080731'
p4618
sS'Walk on the Moon, A (1999)'
p4619
S'0120613'
p4620
sS'Freaky Friday (1977)'
p4621
S'5289822'
p4622
sS'Sabrina (1995)'
p4623
S'0114319'
p4624
sS'20 Dates (1998)'
p4625
S'0138987'
p4626
sS'My Favorite Season (Ma saison pr\xc3\xa9f\xc3\xa9r\xc3\xa9e) (1993)'
p4627
S'0107471'
p4628
sS'Anna Karenina (1997)'
p4629
S'0118623'
p4630
sS'Return to Oz (1985)'
p4631
S'0089908'
p4632
sS'Cabaret Balkan (Bure Baruta) (1998)'
p4633
S'0169145'
p4634
sS'Fatal Instinct (1993)'
p4635
S'0106873'
p4636
sS'Suburbans, The (1999)'
p4637
S'0157075'
p4638
sS'Cosi (1996)'
p4639
S'0115951'
p4640
sS'Love and Other Catastrophes (1996)'
p4641
S'0116931'
p4642
sS'Wing Commander (1999)'
p4643
S'0131646'
p4644
sS'Mutiny on the Bounty (1935)'
p4645
S'0026752'
p4646
sS'In the Mouth of Madness (1995)'
p4647
S'0113409'
p4648
sS'Buffy the Vampire Slayer (1992)'
p4649
S'0103893'
p4650
sS'And the Ship Sails On (E la nave va) (1983)'
p4651
S'0087188'
p4652
sS'Cobra (1925)'
p4653
S'0015693'
p4654
sS'Phantasm (1979)'
p4655
S'0079714'
p4656
sS'Getting Away With Murder (1996)'
p4657
S'0116405'
p4658
sS'Remains of the Day, The (1993)'
p4659
S'0452387'
p4660
sS'Rescuers, The (1977)'
p4661
S'0076618'
p4662
sS'Good Man in Africa, A (1994)'
p4663
S'0109920'
p4664
sS'Alice and Martin (Alice et Martin) (1998)'
p4665
S'0176422'
p4666
sS'Overnight Delivery (1998)'
p4667
S'0117276'
p4668
sS'Native Son (1986)'
p4669
S'0091613'
p4670
sS'Land Girls, The (1998)'
p4671
S'0119494'
p4672
sS'Funhouse, The (1981)'
p4673
S'0082427'
p4674
sS'Living in Oblivion (1995)'
p4675
S'0113677'
p4676
sS'Wild Man Blues (1997)'
p4677
S'0141986'
p4678
sS'Jungle Book, The (1967)'
p4679
S'5630114'
p4680
sS'Space Jam (1996)'
p4681
S'0117705'
p4682
sS'Last Time I Committed Suicide, The (1997)'
p4683
S'0119502'
p4684
sS'U Turn (1997)'
p4685
S'0120399'
p4686
sS'Soul Man (1986)'
p4687
S'0091991'
p4688
sS'Sex, Lies, and Videotape (1989)'
p4689
S'0098724'
p4690
sS'Three Ages (1923)'
p4691
S'0014538'
p4692
sS'Houseguest (1994)'
p4693
S'0570070'
p4694
sS"For Roseanna (Roseanna's Grave) (1997)"
p4695
S'0120034'
p4696
sS'Juror, The (1996)'
p4697
S'0116731'
p4698
sS'Happy Gilmore (1996)'
p4699
S'0116483'
p4700
sS'Senseless (1998)'
p4701
S'0120820'
p4702
sS'Great Day in Harlem, A (1994)'
p4703
S'0109934'
p4704
sS'Harmonists, The (1997)'
p4705
S'0128133'
p4706
sS'Tigger Movie, The (2000)'
p4707
S'0220099'
p4708
sS'E.T. the Extra-Terrestrial (1982)'
p4709
S'0083866'
p4710
sS'Corruptor, The (1999)'
p4711
S'0142192'
p4712
sS'How Green Was My Valley (1941)'
p4713
S'0033729'
p4714
sS'Sticky Fingers of Time, The (1997)'
p4715
S'0127302'
p4716
sS'Psycho (1960)'
p4717
S'0054215'
p4718
sS"Mummy's Tomb, The (1942)"
p4719
S'1458316'
p4720
sS'Blast from the Past (1999)'
p4721
S'0124298'
p4722
sS'Browning Version, The (1994)'
p4723
S'0109340'
p4724
sS'Lost Horizon (1937)'
p4725
S'0029162'
p4726
sS'Promise, The (La promesse) (1996)'
p4727
S'0117398'
p4728
sS'Welcome to the Dollhouse (1995)'
p4729
S'0114906'
p4730
sS'Cable Guy, The (1996)'
p4731
S'0115798'
p4732
sS'Mighty Ducks, The (1992)'
p4733
S'0179976'
p4734
sS'Spawn (1997)'
p4735
S'0120177'
p4736
sS"National Lampoon's Senior Trip (1995)"
p4737
S'0113936'
p4738
sS'Crossfire (1947)'
p4739
S'0039286'
p4740
sS'Mission: Impossible (1996)'
p4741
S'0117060'
p4742
sS'Birds, The (1963)'
p4743
S'0056869'
p4744
sS'Lethal Weapon 3 (1992)'
p4745
S'0104714'
p4746
sS'For the Moment (1994)'
p4747
S'0110665'
p4748
sS'All That Jazz (1979)'
p4749
S'0078754'
p4750
sS'Raiders of the Lost Ark (Indiana Jones and the Raiders of the Lost Ark) (1981)'
p4751
S'1504682'
p4752
sS'Star Trek: Insurrection (1998)'
p4753
S'0120844'
p4754
sS'Highlander (1986)'
p4755
S'0091203'
p4756
sS'Blue Chips (1994)'
p4757
S'0109305'
p4758
sS'Red Rock West (1992)'
p4759
S'0105226'
p4760
sS'Better Off Dead... (1985)'
p4761
S'0088794'
p4762
sS'Meet the Deedles (1998)'
p4763
S'0120645'
p4764
sS'Autumn Sonata (H\xc3\xb6stsonaten) (1978)'
p4765
S'0077711'
p4766
sS'Once Were Warriors (1994)'
p4767
S'0110729'
p4768
sS'Muppet Christmas Carol, The (1992)'
p4769
S'0104940'
p4770
sS'That Old Feeling (1997)'
p4771
S'0120318'
p4772
sS'Rosie (1998)'
p4773
S'0163185'
p4774
sS'Jumanji (1995)'
p4775
S'0113497'
p4776
sS'First Kid (1996)'
p4777
S'0116311'
p4778
sS'Jakob the Liar (1999)'
p4779
S'0120716'
p4780
sS'Chain of Fools (2000)'
p4781
S'0194368'
p4782
sS'Private Parts (1997)'
p4783
S'0119951'
p4784
sS'History of the World: Part I (1981)'
p4785
S'0082517'
p4786
sS'Dark Crystal, The (1982)'
p4787
S'0083791'
p4788
sS'Great Ziegfeld, The (1936)'
p4789
S'0027698'
p4790
sS'Guantanamera (1994)'
p4791
S'0109949'
p4792
sS'Palookaville (1996)'
p4793
S'0117284'
p4794
sS'Three Colors: Red (Trois couleurs: Rouge) (1994)'
p4795
S'0111495'
p4796
sS'Howards End (1992)'
p4797
S'0104454'
p4798
sS'Star Is Born, A (1937)'
p4799
S'1678962'
p4800
sS'Spanking the Monkey (1994)'
p4801
S'0111252'
p4802
sS'End of the Affair, The (1999)'
p4803
S'0172396'
p4804
sS'For Your Eyes Only (1981)'
p4805
S'0082398'
p4806
sS"Bride of Chucky (Child's Play 4) (1998)"
p4807
S'0144120'
p4808
sS'Caught (1996)'
p4809
S'0115847'
p4810
sS'Women on the Verge of a Nervous Breakdown (Mujeres al borde de un ataque de nervios) (1988)'
p4811
S'0095675'
p4812
sS'King of New York (1990)'
p4813
S'0099939'
p4814
sS'Delta of Venus (1995)'
p4815
S'0109593'
p4816
sS'Santa with Muscles (1996)'
p4817
S'0117550'
p4818
sS'Paper, The (1994)'
p4819
S'0110771'
p4820
sS'Why Do Fools Fall In Love? (1998)'
p4821
S'0123324'
p4822
sS'Dogma (1999)'
p4823
S'0120655'
p4824
sS'City Hall (1996)'
p4825
S'0115907'
p4826
sS"What's Love Got to Do with It? (1993)"
p4827
S'0711413'
p4828
sS'Hercules (1997)'
p4829
S'0119282'
p4830
sS'Nelly & Monsieur Arnaud (1995)'
p4831
S'0113947'
p4832
sS'City of Lost Children, The (Cit\xc3\xa9 des enfants perdus, La) (1995)'
p4833
S'0112682'
p4834
sS'Balto (1995)'
p4835
S'0112453'
p4836
sS'Warriors of Virtue (1997)'
p4837
S'0120479'
p4838
sS'Money Talks (1997)'
p4839
S'0119695'
p4840
sS'My Giant (1998)'
p4841
S'0120765'
p4842
sS'Strictly Ballroom (1992)'
p4843
S'0105488'
p4844
sS'Stop Making Sense (1984)'
p4845
S'0088178'
p4846
sS'Tora! Tora! Tora! (1970)'
p4847
S'0066473'
p4848
sS'Son in Law (1993)'
p4849
S'0108186'
p4850
sS'Life of Emile Zola, The (1937)'
p4851
S'0029146'
p4852
sS'Sabrina (1954)'
p4853
S'0047437'
p4854
sS'Secrets & Lies (1996)'
p4855
S'0117589'
p4856
sS'Urban Legend (1998)'
p4857
S'0146336'
p4858
sS'Bride of the Monster (1955)'
p4859
S'0047898'
p4860
sS'Tough Guys (1986)'
p4861
S'0092105'
p4862
sS'Being John Malkovich (1999)'
p4863
S'0120601'
p4864
sS"Mike's Murder (1984)"
p4865
S'0087722'
p4866
sS'Barry Lyndon (1975)'
p4867
S'0072684'
p4868
sS'Jerk, The (1979)'
p4869
S'0079367'
p4870
sS'Candidate, The (1972)'
p4871
S'0068334'
p4872
sS'Bride of Frankenstein (1935)'
p4873
S'0026138'
p4874
sS'Pompatus of Love, The (1996)'
p4875
S'6154608'
p4876
sS"My Life and Times With Antonin Artaud (En compagnie d'Antonin Artaud) (1993)"
p4877
S'0106810'
p4878
sS'Go West (1925)'
p4879
S'0015863'
p4880
sS'In Search of the Castaways (1962)'
p4881
S'0056095'
p4882
sS'Lost in Space (1998)'
p4883
S'0120738'
p4884
sS'Star Trek VI: The Undiscovered Country (1991)'
p4885
S'0102975'
p4886
sS'Arlington Road (1999)'
p4887
S'0137363'
p4888
sS'Aladdin and the King of Thieves (1996)'
p4889
S'0115491'
p4890
sS'Iron Eagle IV (1995)'
p4891
S'0113438'
p4892
sS"There's Something About Mary (1998)"
p4893
S'0129387'
p4894
sS'Madness of King George, The (1994)'
p4895
S'0110428'
p4896
sS'Suicide Kings (1997)'
p4897
S'0120241'
p4898
sS'Muse, The (1999)'
p4899
S'0164108'
p4900
sS'Herbie Goes Bananas (1980)'
p4901
S'0080861'
p4902
sS"They Shoot Horses, Don't They? (1969)"
p4903
S'0065088'
p4904
sS'Brief Encounter (1946)'
p4905
S'0037558'
p4906
sS'Rambo III (1988)'
p4907
S'0095956'
p4908
sS'Mulan (1998)'
p4909
S'0120762'
p4910
sS'Blue Juice (1995)'
p4911
S'0112537'
p4912
sS'Stranger in the House (1997)'
p4913
S'0120222'
p4914
sS"Sullivan's Travels (1941)"
p4915
S'0034240'
p4916
sS'Made in America (1993)'
p4917
S'0107478'
p4918
sS'Mixed Nuts (1994)'
p4919
S'0110538'
p4920
sS"Vive L'Amour (Ai qing wan sui) (1994)"
p4921
S'0109066'
p4922
sS'Killing Fields, The (1984)'
p4923
S'1217261'
p4924
sS'Halloween II (1981)'
p4925
S'0082495'
p4926
sS'Man of the House (1995)'
p4927
S'0113755'
p4928
sS'Howard the Duck (1986)'
p4929
S'0091225'
p4930
sS'101 Dalmatians (1996)'
p4931
S'0115433'
p4932
sS'Hideaway (1995)'
p4933
S'0113303'
p4934
sS'River Runs Through It, A (1992)'
p4935
S'0105265'
p4936
sS'Monster, The (Mostro, Il) (1994)'
p4937
S'0110570'
p4938
sS'Invasion of the Body Snatchers (1956)'
p4939
S'0049366'
p4940
sS'Getaway, The (1994)'
p4941
S'0109890'
p4942
sS"Dante's Peak (1997)"
p4943
S'0118928'
p4944
sS'Sixth Sense, The (1999)'
p4945
S'5447522'
p4946
sS'Adventures of Priscilla, Queen of the Desert, The (1994)'
p4947
S'0109045'
p4948
sS'Angels in the Outfield (1994)'
p4949
S'0109127'
p4950
sS'Denise Calls Up (1995)'
p4951
S'0112844'
p4952
sS'Original Gangstas (1996)'
p4953
S'0117260'
p4954
sS'Happiest Millionaire, The (1967)'
p4955
S'0061749'
p4956
sS"Young Poisoner's Handbook, The (1995)"
p4957
S'0115033'
p4958
sS'All About My Mother (Todo sobre mi madre) (1999)'
p4959
S'0185125'
p4960
sS'My Best Fiend (Mein liebster Feind) (1999)'
p4961
S'0200849'
p4962
sS'Maverick (1994)'
p4963
S'0110478'
p4964
sS'Pagemaster, The (1994)'
p4965
S'0110763'
p4966
sS'Judge Dredd (1995)'
p4967
S'0113492'
p4968
sS'Top Gun (1986)'
p4969
S'0092099'
p4970
sS'Blue Lagoon, The (1980)'
p4971
S'2287663'
p4972
sS'Enemy of the State (1998)'
p4973
S'0120660'
p4974
sS'Roommates (1995)'
p4975
S'0114296'
p4976
sS'Wings of the Dove, The (1997)'
p4977
S'1013676'
p4978
sS'Braveheart (1995)'
p4979
S'0112573'
p4980
sS'Touch (1997)'
p4981
S'0120357'
p4982
sS'Wild Bunch, The (1969)'
p4983
S'0065214'
p4984
sS'Piano, The (1993)'
p4985
S'0107822'
p4986
sS'Carrie (1976)'
p4987
S'0074285'
p4988
sS'Gods Must Be Crazy, The (1980)'
p4989
S'0080801'
p4990
sS'Jail Bait (1954)'
p4991
S'0047127'
p4992
sS'Mission, The (1986)'
p4993
S'0091530'
p4994
sS'Man Who Would Be King, The (1975)'
p4995
S'0073341'
p4996
sS'War, The (1994)'
p4997
S'2170668'
p4998
sS'Walking and Talking (1996)'
p4999
S'0118113'
p5000
sS'Killer: A Journal of Murder (1995)'
p5001
S'0113542'
p5002
sS'Beloved (1998)'
p5003
S'0120603'
p5004
sS'Twisted (1996)'
p5005
S'0117994'
p5006
sS'Married to the Mob (1988)'
p5007
S'0095593'
p5008
sS'Steal Big, Steal Little (1995)'
p5009
S'0114536'
p5010
sS'Mansfield Park (1999)'
p5011
S'0178737'
p5012
sS'Kiss Me, Guido (1997)'
p5013
S'0119465'
p5014
sS'Superman IV: The Quest for Peace (1987)'
p5015
S'0094074'
p5016
sS'Apollo 13 (1995)'
p5017
S'0112384'
p5018
sS'High Plains Drifter (1973)'
p5019
S'0068699'
p5020
sS'Other Sister, The (1999)'
p5021
S'0123209'
p5022
sS'Not One Less (Yi ge dou bu neng shao) (1999)'
p5023
S'0209189'
p5024
sS'Hello Mary Lou: Prom Night II (1987)'
p5025
S'0879728'
p5026
sS'FairyTale: A True Story (1997)'
p5027
S'0119095'
p5028
sS'Extreme Measures (1996)'
p5029
S'0116259'
p5030
sS'Winnie the Pooh and the Blustery Day (1968)'
p5031
S'0063819'
p5032
sS'About Last Night... (1986)'
p5033
S'0090583'
p5034
sS'Nothing to Lose (1994)'
p5035
S'0110693'
p5036
sS'Night Shift (1982)'
p5037
S'0084412'
p5038
sS'Rope (1948)'
p5039
S'0040746'
p5040
sS'Heart Condition (1990)'
p5041
S'0099750'
p5042
sS'New Age, The (1994)'
p5043
S'0110649'
p5044
sS'Star Trek IV: The Voyage Home (1986)'
p5045
S'0092007'
p5046
sS'Superman II (1980)'
p5047
S'0081573'
p5048
sS'Parasite (1982)'
p5049
S'0084472'
p5050
sS'Monkey Shines (1988)'
p5051
S'0095652'
p5052
sS'Last Days, The (1998)'
p5053
S'0120728'
p5054
sS'Red Corner (1997)'
p5055
S'0119994'
p5056
sS'Across the Sea of Time (1995)'
p5057
S'0112286'
p5058
sS'Girls Town (1996)'
p5059
S'0116418'
p5060
sS'Wolf (1994)'
p5061
S'0111742'
p5062
sS'Speed 2: Cruise Control (1997)'
p5063
S'0120179'
p5064
sS'Texas Chainsaw Massacre, The (1974)'
p5065
S'0072271'
p5066
sS'East-West (Est-ouest) (1999)'
p5067
S'0181530'
p5068
sS'Gaslight (1944)'
p5069
S'0036855'
p5070
sS'Wild Bill (1995)'
p5071
S'0114938'
p5072
sS'Bogus (1996)'
p5073
S'0115725'
p5074
sS'Fog, The (1980)'
p5075
S'0080749'
p5076
sS'Usual Suspects, The (1995)'
p5077
S'0114814'
p5078
sS'Fandango (1985)'
p5079
S'0089126'
p5080
sS'I Like It Like That (1994)'
p5081
S'0110091'
p5082
sS'In Too Deep (1999)'
p5083
S'0160401'
p5084
sS'Career Girls (1997)'
p5085
S'0118818'
p5086
sS'High Art (1998)'
p5087
S'0139362'
p5088
sS'Rising Sun (1993)'
p5089
S'0107969'
p5090
sS'Gay Divorcee, The (1934)'
p5091
S'0025164'
p5092
sS'Peeping Tom (1960)'
p5093
S'0054167'
p5094
sS'Shaggy D.A., The (1976)'
p5095
S'0075200'
p5096
sS'Sense and Sensibility (1995)'
p5097
S'0114388'
p5098
sS'Seventh Sign, The (1988)'
p5099
S'0096073'
p5100
sS'Song of the Little Road (Pather Panchali) (1955)'
p5101
S'0048473'
p5102
sS'Incredibly True Adventure of Two Girls in Love, The (1995)'
p5103
S'0113416'
p5104
sS'Sliding Doors (1998)'
p5105
S'0120148'
p5106
sS'Bob Roberts (1992)'
p5107
S'0103850'
p5108
sS'Wild America (1997)'
p5109
S'0120512'
p5110
sS'Broken Arrow (1996)'
p5111
S'0115759'
p5112
sS'Turbo: A Power Rangers Movie (1997)'
p5113
S'0120389'
p5114
sS'Hard Target (1993)'
p5115
S'0107076'
p5116
sS'Bitter Sugar (Az\xc3\xbacar amarga) (1996)'
p5117
S'0115600'
p5118
sS'Say Anything... (1989)'
p5119
S'0098258'
p5120
sS'Sphere (1998)'
p5121
S'0120184'
p5122
sS'Superweib, Das (1996)'
p5123
S'0117788'
p5124
sS'Contempt (M\xc3\xa9pris, Le) (1963)'
p5125
S'0057345'
p5126
sS'Smoke (1995)'
p5127
S'0114478'
p5128
sS'Little Mermaid, The (1989)'
p5129
S'3480460'
p5130
sS'Beyond the Poseidon Adventure (1979)'
p5131
S'0078856'
p5132
sS'Underground (1995)'
p5133
S'0114787'
p5134
sS'Prom Night (1980)'
p5135
S'0081383'
p5136
sS'Bachelor, The (1999)'
p5137
S'0120596'
p5138
sS'Naked Gun 33 1/3: The Final Insult (1994)'
p5139
S'0110622'
p5140
sS'First Knight (1995)'
p5141
S'0113071'
p5142
sS'Children of the Revolution (1996)'
p5143
S'0115886'
p5144
sS'At First Sight (1999)'
p5145
S'0132512'
p5146
sS'Before Sunrise (1995)'
p5147
S'0112471'
p5148
sS'Condorman (1981)'
p5149
S'0082199'
p5150
sS'Quiz Show (1994)'
p5151
S'0110932'
p5152
sS'Wilde (1997)'
p5153
S'0120514'
p5154
sS'Savior (1998)'
p5155
S'0120070'
p5156
sS'Heaven (1998)'
p5157
S'0120697'
p5158
sS"Who's That Girl? (1987)"
p5159
S'0094321'
p5160
sS'Maybe, Maybe Not (Bewegte Mann, Der) (1994)'
p5161
S'0109255'
p5162
sS'Picture Bride (Bijo photo) (1994)'
p5163
S'0114129'
p5164
sS'Starship Troopers (1997)'
p5165
S'0120201'
p5166
sS'Ghost and Mrs. Muir, The (1947)'
p5167
S'0039420'
p5168
sS'Red Sorghum (Hong gao liang) (1987)'
p5169
S'0093206'
p5170
sS'Reality Bites (1994)'
p5171
S'0110950'
p5172
sS'Chushingura (1962)'
p5173
S'0055850'
p5174
sS'Ape, The (1940)'
p5175
S'0029284'
p5176
sS'Mr. Magoo (1997)'
p5177
S'0119718'
p5178
sS'Someone to Watch Over Me (1987)'
p5179
S'0094008'
p5180
sS'Crumb (1994)'
p5181
S'0109508'
p5182
sS'My Life as a Dog (Mitt liv som hund) (1985)'
p5183
S'0089606'
p5184
sS'Hand That Rocks the Cradle, The (1992)'
p5185
S'0104389'
p5186
sS'Collector, The (La collectionneuse) (1967)'
p5187
S'0061495'
p5188
sS'Dead Man Walking (1995)'
p5189
S'0112818'
p5190
sS'Flintstones, The (1994)'
p5191
S'0109813'
p5192
sS'Brenda Starr (1989)'
p5193
S'0096978'
p5194
sS'Karate Kid, Part III, The (1989)'
p5195
S'0097647'
p5196
sS'Witness (1985)'
p5197
S'0090329'
p5198
sS'Institute Benjamenta, or This Dream People Call Human Life (1995)'
p5199
S'0113429'
p5200
sS'Richard III (1995)'
p5201
S'0114279'
p5202
sS'Them! (1954)'
p5203
S'0047573'
p5204
sS'Crimson Tide (1995)'
p5205
S'0112740'
p5206
sS'Sister Act (1992)'
p5207
S'0105417'
p5208
sS'Amityville 3-D (1983)'
p5209
S'0085159'
p5210
sS'Half Baked (1998)'
p5211
S'0120693'
p5212
sS'Free Willy (1993)'
p5213
S'0106965'
p5214
sS'Boys, Les (1997)'
p5215
S'0118804'
p5216
sS'Event Horizon (1997)'
p5217
S'0119081'
p5218
sS'Pushing Hands (Tui shou) (1992)'
p5219
S'0105652'
p5220
sS'Dead Man (1995)'
p5221
S'0112817'
p5222
sS'That Thing You Do! (1996)'
p5223
S'0117887'
p5224
sS'Bambi (1942)'
p5225
S'0034492'
p5226
sS'Davy Crockett, King of the Wild Frontier (1955)'
p5227
S'0047977'
p5228
sS'Benny & Joon (1993)'
p5229
S'0106387'
p5230
sS'Jackie Brown (1997)'
p5231
S'0119396'
p5232
sS'Ashes of Time (Dung che sai duk) (1994)'
p5233
S'0109688'
p5234
sS'They Might Be Giants (1971)'
p5235
S'0067848'
p5236
sS'Life with Mikey (1993)'
p5237
S'0107413'
p5238
sS'Love Is the Devil (1998)'
p5239
S'0119577'
p5240
sS'Celestial Clockwork (M\xc3\xa9caniques c\xc3\xa9lestes) (1995)'
p5241
S'0107537'
p5242
sS'Little Voice (1998)'
p5243
S'0147004'
p5244
sS'Still Breathing (1997)'
p5245
S'0120211'
p5246
sS'My Name Is Joe (1998)'
p5247
S'0151691'
p5248
sS'Phantoms (1998)'
p5249
S'0119891'
p5250
sS'Thin Man, The (1934)'
p5251
S'0025878'
p5252
sS'Ayn Rand: A Sense of Life (1997)'
p5253
S'0118662'
p5254
sS'Swingers (1996)'
p5255
S'0117802'
p5256
sS'Beyond Rangoon (1995)'
p5257
S'0112495'
p5258
sS'Cold Fever (\xc3\x81 k\xc3\xb6ldum klaka) (1995)'
p5259
S'0109028'
p5260
sS'Carnal Knowledge (1971)'
p5261
S'0066892'
p5262
sS'Favor, The (1994)'
p5263
S'4478446'
p5264
sS'Rocky V (1990)'
p5265
S'0100507'
p5266
sS'Tommy (1975)'
p5267
S'0073812'
p5268
sS'Rambo: First Blood Part II (1985)'
p5269
S'0089880'
p5270
sS'Devil and Max Devlin, The (1981)'
p5271
S'0082263'
p5272
sS'Flesh and Bone (1993)'
p5273
S'0106926'
p5274
sS'Killer, The (Die xue shuang xiong) (1989)'
p5275
S'0097202'
p5276
sS'Perils of Pauline, The (1947)'
p5277
S'0039698'
p5278
sS'Lost Weekend, The (1945)'
p5279
S'0818968'
p5280
sS'King and I, The (1999)'
p5281
S'0135659'
p5282
sS'King Kong Lives (1986)'
p5283
S'0091344'
p5284
sS'Safe Passage (1994)'
p5285
S'0111054'
p5286
sS'Dirty Dancing (1987)'
p5287
S'0092890'
p5288
sS'Paris Was a Woman (1995)'
p5289
S'0114093'
p5290
sS'Spy Hard (1996)'
p5291
S'0117723'
p5292
sS'Kaspar Hauser (1993)'
p5293
S'0110246'
p5294
sS'Contact (1997)'
p5295
S'0118884'
p5296
sS'Wood, The (1999)'
p5297
S'2121362'
p5298
sS'Journey of Natty Gann, The (1985)'
p5299
S'0089385'
p5300
sS'It Takes Two (1995)'
p5301
S'0113442'
p5302
sS"Jumpin' Jack Flash (1986)"
p5303
S'0091306'
p5304
sS'Impostors, The (1998)'
p5305
S'0120823'
p5306
sS'Problem Child 2 (1991)'
p5307
S'0102719'
p5308
sS'Poltergeist II: The Other Side (1986)'
p5309
S'0091778'
p5310
sS'After Life (Wandafuru raifu) (1998)'
p5311
S'0165078'
p5312
sS'Blob, The (1958)'
p5313
S'4526666'
p5314
sS'Object of My Affection, The (1998)'
p5315
S'0120772'
p5316
sS'Earth vs. the Flying Saucers (1956)'
p5317
S'0049169'
p5318
sS'Cyrano de Bergerac (1990)'
p5319
S'0099334'
p5320
sS'Fried Green Tomatoes (1991)'
p5321
S'0101921'
p5322
sS'Metroland (1997)'
p5323
S'0119665'
p5324
sS'Office Killer (1997)'
p5325
S'0119819'
p5326
sS'Single Girl, A (Fille seule, La) (1995)'
p5327
S'0113057'
p5328
sS'Stanley & Iris (1990)'
p5329
S'0100680'
p5330
sS'Simply Irresistible (1999)'
p5331
S'0145893'
p5332
sS'Shining, The (1980)'
p5333
S'0081505'
p5334
sS"Doug's 1st Movie (1999)"
p5335
S'0187819'
p5336
sS'Perfect Blue (1997)'
p5337
S'0156887'
p5338
sS'Police Academy 4: Citizens on Patrol (1987)'
p5339
S'0093756'
p5340
sS'Ring, The (1927)'
p5341
S'3005106'
p5342
sS'Legends of the Fall (1994)'
p5343
S'0110322'
p5344
sS'Nell (1994)'
p5345
S'0110638'
p5346
sS'Bad Moon (1996)'
p5347
S'0115610'
p5348
sS'Music of the Heart (1999)'
p5349
S'0166943'
p5350
sS'Amityville II: The Possession (1982)'
p5351
S'0083550'
p5352
sS'Straight Story, The (1999)'
p5353
S'0166896'
p5354
sS'Red Sonja (1985)'
p5355
S'0089893'
p5356
sS'Judgment Night (1993)'
p5357
S'0107286'
p5358
sS'Character (Karakter) (1997)'
p5359
S'0119448'
p5360
sS"Charlotte's Web (1973)"
p5361
S'0070016'
p5362
sS'Death in the Garden (La mort en ce jardin) (1956)'
p5363
S'0049521'
p5364
sS'Family Plot (1976)'
p5365
S'0074512'
p5366
sS'Scarlet Letter, The (1995)'
p5367
S'4368688'
p5368
sS'Nenette and Boni (N\xc3\xa9nette et Boni) (1996)'
p5369
S'0117221'
p5370
sS'Perfect Murder, A (1998)'
p5371
S'0120787'
p5372
sS'Rain Man (1988)'
p5373
S'0095953'
p5374
sS'Mosquito Coast, The (1986)'
p5375
S'0091557'
p5376
sS'Entrapment (1999)'
p5377
S'0137494'
p5378
sS'Police Academy 6: City Under Siege (1989)'
p5379
S'0098105'
p5380
sS'Gloria (1999)'
p5381
S'0120683'
p5382
sS'Beautiful Girls (1996)'
p5383
S'0115639'
p5384
sS'Bedknobs and Broomsticks (1971)'
p5385
S'0066817'
p5386
sS'In the Army Now (1994)'
p5387
S'0110123'
p5388
sS'Sound of Music, The (1965)'
p5389
S'0059742'
p5390
sS'Wonderland (1997)'
p5391
S'0120529'
p5392
sS'Blue Collar (1978)'
p5393
S'0077248'
p5394
sS'Saragossa Manuscript, The (Rekopis znaleziony w Saragossie) (1965)'
p5395
S'0059643'
p5396
sS'First Strike (Police Story 4: First Strike) (Ging chaat goo si 4: Ji gaan daan yam mo) (1996)'
p5397
S'0116704'
p5398
sS'Three to Tango (1999)'
p5399
S'0144640'
p5400
sS'Body Parts (1991)'
p5401
S'0101492'
p5402
sS'Mariachi, El (1992)'
p5403
S'0104815'
p5404
sS'Beavis and Butt-Head Do America (1996)'
p5405
S'0115641'
p5406
sS'Color of Night (1994)'
p5407
S'0109456'
p5408
sS'Unforgettable (1996)'
p5409
S'0118040'
p5410
sS'Paulie (1998)'
p5411
S'0125454'
p5412
sS'Red Firecracker, Green Firecracker (Pao Da Shuang Deng) (1994)'
p5413
S'0110769'
p5414
sS'Meet Me in St. Louis (1944)'
p5415
S'0037059'
p5416
sS'Orlando (1992)'
p5417
S'0107756'
p5418
sS'Hunt for Red October, The (1990)'
p5419
S'0099810'
p5420
sS'From Dusk Till Dawn (1996)'
p5421
S'0116367'
p5422
sS'Palm Beach Story, The (1942)'
p5423
S'0035169'
p5424
sS'Yellow Submarine (1968)'
p5425
S'0063823'
p5426
sS'One True Thing (1998)'
p5427
S'0120776'
p5428
sS'Dingo (1991)'
p5429
S'0104109'
p5430
sS'Little Indian, Big City (Un indien dans la ville) (1994)'
p5431
S'0111543'
p5432
sS'When a Man Loves a Woman (1994)'
p5433
S'0111693'
p5434
sS'Reds (1981)'
p5435
S'0082979'
p5436
sS'Ugly, The (1997)'
p5437
S'0120401'
p5438
sS'Clay Pigeons (1998)'
p5439
S'0118863'
p5440
sS'Love Stinks (1999)'
p5441
S'0188863'
p5442
sS'Rosencrantz and Guildenstern Are Dead (1990)'
p5443
S'0100519'
p5444
sS'Dream for an Insomniac (1996)'
p5445
S'0116141'
p5446
sS'Dead Poets Society (1989)'
p5447
S'0097165'
p5448
sS'Daughters of the Dust (1991)'
p5449
S'0104057'
p5450
sS'Mary Poppins (1964)'
p5451
S'0058331'
p5452
sS'Halloween 4: The Return of Michael Myers (1988)'
p5453
S'0095271'
p5454
sS'Star Wars: Episode VI - Return of the Jedi (1983)'
p5455
S'0086190'
p5456
sS'Free Willy 2: The Adventure Home (1995)'
p5457
S'0113114'
p5458
sS'This Is Spinal Tap (1984)'
p5459
S'0088258'
p5460
sS"We're No Angels (1989)"
p5461
S'0098625'
p5462
sS'Dune (1984)'
p5463
S'0087182'
p5464
sS'Bringing Up Baby (1938)'
p5465
S'0029947'
p5466
sS'Deliverance (1972)'
p5467
S'0068473'
p5468
sS"Angela's Ashes (1999)"
p5469
S'0145653'
p5470
sS'Hollow Reed (1996)'
p5471
S'0113314'
p5472
sS'Lost Highway (1997)'
p5473
S'0116922'
p5474
sS'Grandfather, The (Abuelo, El) (1998)'
p5475
S'0176415'
p5476
sS'Ed Wood (1994)'
p5477
S'0109707'
p5478
sS'Frankenstein (1931)'
p5479
S'0021884'
p5480
sS'Damien: Omen II (1978)'
p5481
S'0077394'
p5482
sS'Best Men (1997)'
p5483
S'0118702'
p5484
sS'Fear, The (1995)'
p5485
S'0113043'
p5486
sS'Executive Decision (1996)'
p5487
S'0116253'
p5488
sS'Mercury Rising (1998)'
p5489
S'0120749'
p5490
sS'Once Upon a Time in America (1984)'
p5491
S'0087843'
p5492
sS'Last of the Mohicans, The (1992)'
p5493
S'0104691'
p5494
sS'Man Without a Face, The (1993)'
p5495
S'0107501'
p5496
sS'High School High (1996)'
p5497
S'0116531'
p5498
sS'Matrix, The (1999)'
p5499
S'0133093'
p5500
sS"Eve's Bayou (1997)"
p5501
S'0119080'
p5502
sS'Curdled (1996)'
p5503
S'0115994'
p5504
sS'Boondock Saints, The (2000)'
p5505
S'1539233'
p5506
sS'Even Cowgirls Get the Blues (1993)'
p5507
S'0106834'
p5508
sS'My Blue Heaven (1990)'
p5509
S'0100212'
p5510
sS'Magnolia (1999)'
p5511
S'0175880'
p5512
sS"April Fool's Day (1986)"
p5513
S'0090655'
p5514
sS'Agnes of God (1985)'
p5515
S'0088683'
p5516
sS'Faces (1968)'
p5517
S'0062952'
p5518
sS'King of the Hill (1993)'
p5519
S'0107322'
p5520
sS'Loaded (1994)'
p5521
S'0110374'
p5522
sS'Splash (1984)'
p5523
S'0088161'
p5524
sS'Boys, The (1998)'
p5525
S'0120769'
p5526
sS'Destination Moon (1950)'
p5527
S'0042393'
p5528
sS'Beetlejuice (1988)'
p5529
S'0094721'
p5530
sS'Sandpiper, The (1965)'
p5531
S'0059674'
p5532
sS"Who's Harry Crumb? (1989)"
p5533
S'0098645'
p5534
sS'Confessional, The (Confessionnal, Le) (1995)'
p5535
S'0112714'
p5536
sS'Easy Rider (1969)'
p5537
S'0064276'
p5538
sS'Phat Beach (1996)'
p5539
S'0117332'
p5540
sS"Darby O'Gill and the Little People (1959)"
p5541
S'0052722'
p5542
sS'Ladybird Ladybird (1994)'
p5543
S'0110296'
p5544
sS'Breakfast Club, The (1985)'
p5545
S'0088847'
p5546
sS'Dead Man on Campus (1998)'
p5547
S'0118301'
p5548
sS'Star Maps (1997)'
p5549
S'0120197'
p5550
sS'Godzilla (1998)'
p5551
S'0120685'
p5552
sS'Mouth to Mouth (Boca a boca) (1995)'
p5553
S'0112546'
p5554
sS'Breathing Room (1996)'
p5555
S'0115754'
p5556
sS'Lawrence of Arabia (1962)'
p5557
S'0056172'
p5558
sS'Ipcress File, The (1965)'
p5559
S'0059319'
p5560
sS'Cocoon (1985)'
p5561
S'0088933'
p5562
sS"It's My Party (1996)"
p5563
S'0113443'
p5564
sS'Dancer, Texas Pop. 81 (1998)'
p5565
S'0118925'
p5566
sS'Spellbound (1945)'
p5567
S'0038109'
p5568
sS"Peter's Friends (1992)"
p5569
S'0105130'
p5570
sS'Romancing the Stone (1984)'
p5571
S'0088011'
p5572
sS'Supercop (Police Story 3: Supercop) (Jing cha gu shi III: Chao ji jing cha) (1992)'
p5573
S'0104558'
p5574
sS'Destiny Turns on the Radio (1995)'
p5575
S'0112854'
p5576
sS'Stars Fell on Henrietta, The (1995)'
p5577
S'0114534'
p5578
sS'Belle de jour (1967)'
p5579
S'0061395'
p5580
sS'Working Girl (1988)'
p5581
S'0096463'
p5582
sS'Soul Food (1997)'
p5583
S'0120169'
p5584
sS'Tigrero: A Film That Was Never Made (1994)'
p5585
S'0111430'
p5586
sS'Fly II, The (1989)'
p5587
S'0097368'
p5588
sS'Homeward Bound II: Lost in San Francisco (1996)'
p5589
S'0116552'
p5590
sS'Panther (1995)'
p5591
S'0114084'
p5592
sS"My Boyfriend's Back (1993)"
p5593
S'0107626'
p5594
sS'Mrs. Doubtfire (1993)'
p5595
S'0107614'
p5596
sS'It Happened One Night (1934)'
p5597
S'0025316'
p5598
sS'Tequila Sunrise (1988)'
p5599
S'0096244'
p5600
sS'Inspector Gadget (1999)'
p5601
S'0141369'
p5602
sS'Best Man, The (1999)'
p5603
S'0168501'
p5604
sS'Children of Paradise (Les enfants du paradis) (1945)'
p5605
S'0037674'
p5606
sS'Crucible, The (1996)'
p5607
S'0115988'
p5608
sS'Four Weddings and a Funeral (1994)'
p5609
S'0109831'
p5610
sS'Unforgettable Summer, An (Un \xc3\xa9t\xc3\xa9 inoubliable) (1994)'
p5611
S'0111546'
p5612
sS'Fire Down Below (1997)'
p5613
S'0119123'
p5614
sS'Rendezvous in Paris (Rendez-vous de Paris, Les) (1995)'
p5615
S'0114266'
p5616
sS'7th Voyage of Sinbad, The (1958)'
p5617
S'0051337'
p5618
sS"Pete's Dragon (1977)"
p5619
S'0076538'
p5620
sS'Angels and Insects (1995)'
p5621
S'0112365'
p5622
sS'Tales from the Crypt Presents: Demon Knight (1995)'
p5623
S'0114608'
p5624
sS'Akira (1988)'
p5625
S'0094625'
p5626
sS'Austin Powers: International Man of Mystery (1997)'
p5627
S'0118655'
p5628
sS'Fever Pitch (1997)'
p5629
S'0119114'
p5630
sS'House of Yes, The (1997)'
p5631
S'0119324'
p5632
sS'Swimming with Sharks (1995)'
p5633
S'0114594'
p5634
sS'Limey, The (1999)'
p5635
S'0165854'
p5636
sS'RoboCop 2 (1990)'
p5637
S'0100502'
p5638
sS'Theodore Rex (1995)'
p5639
S'0114658'
p5640
sS'Get on the Bus (1996)'
p5641
S'0116404'
p5642
sS'Stepford Wives, The (1975)'
p5643
S'0073747'
p5644
sS'Blood Beach (1981)'
p5645
S'0082818'
p5646
sS'Queens Logic (1991)'
p5647
S'0102741'
p5648
sS'Normal Life (1996)'
p5649
S'0117202'
p5650
sS'Solo (1996)'
p5651
S'0117688'
p5652
sS'It Came from Outer Space (1953)'
p5653
S'0045920'
p5654
sS"Cookie's Fortune (1999)"
p5655
S'0126250'
p5656
sS'South Pacific (1958)'
p5657
S'0052225'
p5658
sS'Crow: City of Angels, The (1996)'
p5659
S'0115986'
p5660
sS'Cider House Rules, The (1999)'
p5661
S'0370414'
p5662
sS'Gumby: The Movie (1995)'
p5663
S'0113234'
p5664
sS'Cinderella (1950)'
p5665
S'0042332'
p5666
sS'Some Like It Hot (1959)'
p5667
S'0053291'
p5668
sS'Like Water for Chocolate (Como agua para chocolate) (1992)'
p5669
S'0103994'
p5670
sS'Beat the Devil (1953)'
p5671
S'0046414'
p5672
sS'Crash (1996)'
p5673
S'0115964'
p5674
sS'Sweet and Lowdown (1999)'
p5675
S'0158371'
p5676
sS'Loser (1991)'
p5677
S'0102336'
p5678
sS'Blind Date (1987)'
p5679
S'0092666'
p5680
sS'While You Were Sleeping (1995)'
p5681
S'0114924'
p5682
sS'Graduate, The (1967)'
p5683
S'0061722'
p5684
sS'Tumbleweeds (1999)'
p5685
S'0161023'
p5686
sS'Kingpin (1996)'
p5687
S'0116778'
p5688
sS'Tarantula (1955)'
p5689
S'0048696'
p5690
sS'Some Kind of Wonderful (1987)'
p5691
S'0094006'
p5692
sS'Cool Hand Luke (1967)'
p5693
S'0061512'
p5694
sS'Priest (1994)'
p5695
S'0110889'
p5696
sS'Blues Brothers, The (1980)'
p5697
S'0482521'
p5698
sS'Boys of St. Vincent, The (1992)'
p5699
S'0106473'
p5700
sS'East of Eden (1955)'
p5701
S'0048028'
p5702
sS'Agnes Browne (1999)'
p5703
S'0160509'
p5704
sS'Field of Dreams (1989)'
p5705
S'0097351'
p5706
sS'Grandview, U.S.A. (1984)'
p5707
S'0087359'
p5708
sS'Westworld (1973)'
p5709
S'0070909'
p5710
sS"It's a Wonderful Life (1946)"
p5711
S'0038650'
p5712
sS'Great Dictator, The (1940)'
p5713
S'1932728'
p5714
sS'American Dream (1990)'
p5715
S'0099028'
p5716
sS'Fled (1996)'
p5717
S'0116320'
p5718
sS'Thomas Crown Affair, The (1999)'
p5719
S'0155267'
p5720
sS'Gnome-Mobile, The (1967)'
p5721
S'0061715'
p5722
sS'Indiana Jones and the Last Crusade (1989)'
p5723
S'0097576'
p5724
sS'Lodger: A Story of the London Fog, The (1927)'
p5725
S'0017075'
p5726
sS'Ref, The (1994)'
p5727
S'0110955'
p5728
sS'D\xc3\xa9j\xc3\xa0 Vu (1997)'
p5729
S'0119033'
p5730
sS'Oliver! (1968)'
p5731
S'0063385'
p5732
sS'Line King: The Al Hirschfeld Story, The (1996)'
p5733
S'0116886'
p5734
sS'Creepshow (1982)'
p5735
S'0083767'
p5736
sS'Quest for Camelot (1998)'
p5737
S'0120800'
p5738
sS'Runaway Train (1985)'
p5739
S'0089941'
p5740
sS'Tom & Viv (1994)'
p5741
S'0111454'
p5742
sS'Murder! (1930)'
p5743
S'0021165'
p5744
sS"Mifune's Last Song (Mifunes sidste sang) (1999)"
p5745
S'0164756'
p5746
sS"Romy and Michele's High School Reunion (1997)"
p5747
S'0120032'
p5748
sS'Tom and Huck (1995)'
p5749
S'0112302'
p5750
sS'For Love of the Game (1999)'
p5751
S'0126916'
p5752
sS'Platoon (1986)'
p5753
S'0091763'
p5754
sS'Cujo (1983)'
p5755
S'0085382'
p5756
sS'Far Off Place, A (1993)'
p5757
S'0106868'
p5758
sS'To Wong Foo, Thanks for Everything! Julie Newmar (1995)'
p5759
S'0114682'
p5760
sS'No Small Affair (1984)'
p5761
S'0087810'
p5762
sS'Stuart Little (1999)'
p5763
S'0164912'
p5764
sS'Jaws 3-D (1983)'
p5765
S'0085750'
p5766
sS'Dirty Dozen, The (1967)'
p5767
S'0094451'
p5768
sS'T-Men (1947)'
p5769
S'0039881'
p5770
sS'Algiers (1938)'
p5771
S'0029855'
p5772
sS'Fitzcarraldo (1982)'
p5773
S'0083946'
p5774
sS'Girl 6 (1996)'
p5775
S'0116414'
p5776
sS'Apocalypse Now (1979)'
p5777
S'0078788'
p5778
sS'Species II (1998)'
p5779
S'0120841'
p5780
sS'Baby Geniuses (1999)'
p5781
S'0118665'
p5782
sS'Dolores Claiborne (1995)'
p5783
S'0109642'
p5784
sS"Man Bites Dog (C'est arriv\xc3\xa9 pr\xc3\xa8s de chez vous) (1992)"
p5785
S'0103905'
p5786
sS'Gods Must Be Crazy II, The (1989)'
p5787
S'0097443'
p5788
sS'Thin Blue Line, The (1988)'
p5789
S'2561666'
p5790
sS'Omen, The (1976)'
p5791
S'0075005'
p5792
sS'Amateur (1994)'
p5793
S'0109093'
p5794
sS'Hearts and Minds (1996)'
p5795
S'0565364'
p5796
sS'Life Less Ordinary, A (1997)'
p5797
S'0119535'
p5798
sS'Bastard Out of Carolina (1996)'
p5799
S'0115633'
p5800
sS'Little Shop of Horrors, The (1960)'
p5801
S'0091419'
p5802
sS'My Cousin Vinny (1992)'
p5803
S'0104952'
p5804
sS'Sleeper (1973)'
p5805
S'0070707'
p5806
sS'Slam (1998)'
p5807
S'0139615'
p5808
sS'Circus, The (1928)'
p5809
S'0018773'
p5810
sS'King and I, The (1956)'
p5811
S'0049408'
p5812
s.