(lp0
S"Bear, The (Ours, L') (1988)"
p1
aS'Horror Hotel (a.k.a. City of the Dead, The) (1960)'
p2
aS'Big Kahuna, The (2000)'
p3
aS'8 \xc2\xbd Women (a.k.a. 8 1/2 Women) (a.k.a. Eight and a Half Women) (1999)'
p4
aS"Big Momma's House (2000)"
p5
aS'City of the Living Dead (a.k.a. Gates of Hell, The) (Paura nella citt\xc3\xa0 dei morti viventi) (1980)'
p6
aS'Toxic Avenger, The (1985)'
p7
aS'Bound by Honor (a.k.a. Blood In, Blood Out) (1993)'
p8
aS'F/X2 (a.k.a. F/X 2 - The Deadly Art of Illusion) (1991)'
p9
aS'Wisdom of Crocodiles, The (a.k.a. Immortality) (2000)'
p10
aS'Tic Code, The (1998)'
p11
aS'Phish: Bittersweet Motel (2000)'
p12
aS'Ghoulies (1985)'
p13
aS'Ghoulies II (1987)'
p14
aS'How the Grinch Stole Christmas (a.k.a. The Grinch) (2000)'
p15
aS'Legend of Rita, The (Stille nach dem Schu\xc3\x9f, Die) (1999)'
p16
aS'In the Mood For Love (Fa yeung nin wa) (2000)'
p17
aS'Blow Dry (a.k.a. Never Better) (2001)'
p18
aS'Madadayo (a.k.a. Not Yet) (1993)'
p19
aS'Exit Wounds (2001)'
p20
aS'Pok\xc3\xa9mon 3: The Movie (2001)'
p21
aS'Day I Became a Woman, The (Roozi khe zan shodam) (2000)'
p22
aS'Nine to Five (a.k.a. 9 to 5) (1980)'
p23
aS'Return of the Magnificent Seven, The (a.k.a. Return of the Seven) (1966)'
p24
aS'Semi-Tough (1978)'
p25
aS'Adventures of Felix, The (a.k.a. Funny Felix) (Dr\xc3\xb4le de F\xc3\xa9lix) (2000)'
p26
aS'Speed Zone! (a.k.a. Cannonball Run III) (1989)'
p27
aS'Christiane F. (a.k.a. We Children from Bahnhof Zoo) (Christiane F. - Wir Kinder vom Bahnhof Zoo) (1981)'
p28
aS'Way of the Dragon, The (a.k.a. Return of the Dragon) (Meng long guo jiang) (1972)'
p29
aS'Lady in White (a.k.a. The Mystery of the Lady in White) (1988)'
p30
aS'Return to Snowy River (a.k.a. The Man From Snowy River II) (1988)'
p31
aS'Satisfaction (a.k.a. Girls of Summer) (1988)'
p32
aS'Tetsuo, the Ironman (Tetsuo) (1988)'
p33
aS'Gross Anatomy (a.k.a. A Cut Above) (1989)'
p34
aS'Marat/Sade (1966)'
p35
aS"Wild Child, The (Enfant sauvage, L') (1970)"
p36
aS'Bad Timing: A Sensual Obsession (1980)'
p37
aS'Soul Survivors (a.k.a. The Killer Cut) (2001)'
p38
aS'Diamond Men (2001)'
p39
aS'Great Silence, The (Grande silenzio, Il) (1969)'
p40
aS'Moscow Does Not Believe in Tears (Moskva slezam ne verit) (1979)'
p41
aS'Go Figure (Va savoir) (2001)'
p42
aS'Iron Monkey (Siu nin Wong Fei-hung ji: Tit Ma Lau) (1993)'
p43
aS'Spriggan (Supurigan) (1998)'
p44
aS'Titanica (1992)'
p45
aS'Intimacy (2000)'
p46
aS'Thirteen Ghosts (a.k.a. Thir13en Ghosts) (2001)'
p47
aS"Harry Potter and the Sorcerer's Stone (a.k.a. Harry Potter and the Philosopher's Stone) (2001)"
p48
aS"Ocean's Eleven (a.k.a. Ocean's 11) (1960)"
p49
aS'Crawling Eye, The (a.k.a. Trollenberg Terror, The) (1958)'
p50
aS'Sex and Zen (Rou pu Tuan zhi tou Qing bao Jian) (1992)'
p51
aS'What Time Is It There? (Ni neibian jidian) (2001)'
p52
aS'Enigma of Kaspar Hauser, The (a.k.a. Mystery of Kaspar Hauser, The) (Jeder f\xc3\xbcr sich und Gott Gegen Alle) (1974)'
p53
aS'M*A*S*H (a.k.a. MASH) (1970)'
p54
a.